(lp1
V
aV1
aV11
p2
aV158
p3
aV2
aV2000
p4
aV22
p5
aV28
p6
aV2gether
p7
aV2x
p8
aV3
aV30
p9
aV32
p10
aV4
aV401k
p11
aV441
p12
aV45
p13
aV54
p14
aV7
aV8x
p15
aV90
p16
aV909
p17
aV937
p18
aS'<endLine>'
p19
aS'<eos>'
p20
aS'<go>'
p21
aVA
aVABCs
p22
aVAM
p23
aVAaaaah
p24
aVAaahhh
p25
aVAah
p26
aVAba
p27
aVAbercrombie
p28
aVAbigail
p29
aVAbout
p30
aVAbove
p31
aVAbsent
p32
aVAce
p33
aVAchilles
p34
aVAcross
p35
aVAct
p36
aVActing
p37
aVAfraid
p38
aVAfrican
p39
aVAfter
p40
aVAfters
p41
aVAgain
p42
aVAgainst
p43
aVAh
p44
aVAhh
p45
aVAhhh
p46
aVAhhhh
p47
aVAhyeahyeahyeahyeahyeahyeah
p48
aVAim
p49
aVAint
p50
aVAlan
p51
aVAlbert
p52
aVAli
p53
aVAlive
p54
aVAll
p55
aVAllen
p56
aVAlone
p57
aVAlong
p58
aVAlready
p59
aVAlright
p60
aVAlthough
p61
aVAlways
p62
aVAm
p63
aVAmazing
p64
aVAmelia
p65
aVAmerica
p66
aVAmerican
p67
aVAmong
p68
aVAmsterdam
p69
aVAn
p70
aVAnd
p71
aVAnderen
p72
aVAngel
p73
aVAngelinas
p74
aVAngels
p75
aVAngry
p76
aVAnimal
p77
aVAnimals
p78
aVAnother
p79
aVAnothers
p80
aVAny
p81
aVAnymore
p82
aVAnything
p83
aVAnytime
p84
aVAnyway
p85
aVAnyways
p86
aVApologize
p87
aVApple
p88
aVAraby
p89
aVAre
p90
aVArent
p91
aVArizona
p92
aVArmed
p93
aVArmen
p94
aVArmy
p95
aVAround
p96
aVArrive
p97
aVAs
p98
aVAshcroft
p99
aVAsia
p100
aVAsian
p101
aVAsk
p102
aVAsked
p103
aVAsking
p104
aVAt
p105
aVAtlantic
p106
aVAttracts
p107
aVAustralia
p108
aVAustria
p109
aVAutumn
p110
aVAuw
p111
aVAvenue
p112
aVAw
p113
aVAway
p114
aVAy
p115
aVAye
p116
aVB
aVBB
p117
aVBBC
p118
aVBOAC
p119
aVBabe
p120
aVBaby
p121
aVBabys
p122
aVBack
p123
aVBagism
p124
aVBahran
p125
aVBaltimore
p126
aVBand
p127
aVBandaids
p128
aVBang
p129
aVBarnyard
p130
aVBathed
p131
aVBay
p132
aVBe
p133
aVBeach
p134
aVBears
p135
aVBeaten
p136
aVBeatles
p137
aVBeau
p138
aVBeautiful
p139
aVBeauty
p140
aVBecame
p141
aVBecause
p142
aVBecome
p143
aVBecomes
p144
aVBee
p145
aVBeen
p146
aVBeep
p147
aVBeethoven
p148
aVBefore
p149
aVBegging
p150
aVBehind
p151
aVBeing
p152
aVBelieve
p153
aVBells
p154
aVBeneath
p155
aVBesame
p156
aVBest
p157
aVBet
p158
aVBette
p159
aVBetter
p160
aVBetween
p161
aVBible
p162
aVBig
p163
aVBigger
p164
aVBill
p165
aVBilly
p166
aVBird
p167
aVBirds
p168
aVBirmingham
p169
aVBirthday
p170
aVBishops
p171
aVBittersweet
p172
aVBlack
p173
aVBlackbird
p174
aVBlackburn
p175
aVBlame
p176
aVBless
p177
aVBlew
p178
aVBlind
p179
aVBlinded
p180
aVBlonde
p181
aVBloody
p182
aVBlue
p183
aVBlues
p184
aVBoatswain
p185
aVBobby
p186
aVBom
p187
aVBompa
p188
aVBones
p189
aVBonnie
p190
aVBooked
p191
aVBop
p192
aVBorn
p193
aVBoston
p194
aVBoth
p195
aVBoulevard
p196
aVBoy
p197
aVBoys
p198
aVBraced
p199
aVBrad
p200
aVBreak
p201
aVBreakin
p202
aVBreaking
p203
aVBreaks
p204
aVBreathless
p205
aVBridge
p206
aVBridges
p207
aVBright
p208
aVBrighter
p209
aVBring
p210
aVBroadway
p211
aVBroadways
p212
aVBroke
p213
aVBroken
p214
aVBrother
p215
aVBrown
p216
aVBrrr
p217
aVBrushing
p218
aVBuild
p219
aVBuilt
p220
aVBulldog
p221
aVBullfrog
p222
aVBungalow
p223
aVBurn
p224
aVBurnetteBurlisonMortimer
p225
aVBurning
p226
aVBurns
p227
aVBurnt
p228
aVBursting
p229
aVBurton
p230
aVBury
p231
aVBurying
p232
aVBusby
p233
aVBusiness
p234
aVBusy
p235
aVBut
p236
aVButtons
p237
aVBuy
p238
aVBuys
p239
aVBy
p240
aVBye
p241
aVC
aVCHORUS
p242
aVCIA
p243
aVCalifornia
p244
aVCall
p245
aVCalling
p246
aVCalls
p247
aVCalm
p248
aVCalvary
p249
aVCame
p250
aVCan
p251
aVCant
p252
aVCaptain
p253
aVCar
p254
aVCaramel
p255
aVCareer
p256
aVCareful
p257
aVCareless
p258
aVCarl
p259
aVCarol
p260
aVCarolina
p261
aVCarrie
p262
aVCarry
p263
aVCars
p264
aVCarve
p265
aVCarved
p266
aVCassius
p267
aVCatch
p268
aVCathedrals
p269
aVCaught
p270
aVCause
p271
aVCavalry
p272
aVCellophane
p273
aVChains
p274
aVChairman
p275
aVChan
p276
aVChange
p277
aVChanging
p278
aVChaos
p279
aVCharlie
p280
aVChases
p281
aVChasing
p282
aVCheck
p283
aVCherry
p284
aVChevy
p285
aVChildlike
p286
aVChina
p287
aVChop
p288
aVChorus
p289
aVChose
p290
aVChris
p291
aVChrist
p292
aVChristmas
p293
aVChristmases
p294
aVChuck
p295
aVCircumnavigate
p296
aVCity
p297
aVClarabella
p298
aVCleanin
p299
aVCleansed
p300
aVClear
p301
aVClearly
p302
aVClever
p303
aVClimb
p304
aVClimbing
p305
aVCling
p306
aVClose
p307
aVCloser
p308
aVClosest
p309
aVClosing
p310
aVClouds
p311
aVClub
p312
aVClutching
p313
aVCmon
p314
aVCocaCola
p315
aVCoconut
p316
aVCoffee
p317
aVCold
p318
aVColdplay
p319
aVCollapsible
p320
aVCome
p321
aVComes
p322
aVComing
p323
aVCommonwealth
p324
aVCompletely
p325
aVComplicated
p326
aVConfetti
p327
aVConfidence
p328
aVConfusion
p329
aVConsider
p330
aVConstantly
p331
aVContemplating
p332
aVCook
p333
aVCooking
p334
aVCool
p335
aVCooper
p336
aVCorporation
p337
aVCory
p338
aVCorys
p339
aVCos
p340
aVCould
p341
aVCouldnt
p342
aVCouldve
p343
aVCount
p344
aVCounter
p345
aVCountin
p346
aVCounting
p347
aVCounty
p348
aVCover
p349
aVCrabalocker
p350
aVCrawling
p351
aVCrazier
p352
aVCrazy
p353
aVCreated
p354
aVCreme
p355
aVCried
p356
aVCrossed
p357
aVCrossing
p358
aVCry
p359
aVCrying
p360
aVCrystal
p361
aVCuesto
p362
aVCupid
p363
aVCupids
p364
aVCursed
p365
aVCut
p366
aVCuz
p367
aVD
aVDJ
p368
aVDa
p369
aVDaddy
p370
aVDaddys
p371
aVDaily
p372
aVDaisys
p373
aVDakota
p374
aVDallas
p375
aVDan
p376
aVDance
p377
aVDanced
p378
aVDangling
p379
aVDaniel
p380
aVDanny
p381
aVDark
p382
aVDarkness
p383
aVDarling
p384
aVDas
p385
aVDashing
p386
aVDavis
p387
aVDay
p388
aVDaylight
p389
aVDays
p390
aVDdont
p391
aVDean
p392
aVDear
p393
aVDearest
p394
aVDeath
p395
aVDecember
p396
aVDecided
p397
aVDeciphering
p398
aVDecisions
p399
aVDeclare
p400
aVDee
p401
aVDeep
p402
aVDeeper
p403
aVDefeat
p404
aVDefine
p405
aVDelights
p406
aVDeliver
p407
aVDenis
p408
aVDenn
p409
aVDerek
p410
aVDesmond
p411
aVDesperately
p412
aVDespite
p413
aVDeva
p414
aVDial
p415
aVDiamant
p416
aVDiamonds
p417
aVDid
p418
aVDidnt
p419
aVDied
p420
aVDig
p421
aVDime
p422
aVDina
p423
aVDip
p424
aVDirty
p425
aVDisappear
p426
aVDiscuss
p427
aVDistance
p428
aVDistant
p429
aVDistracted
p430
aVDo
p431
aVDoc
p432
aVDoctor
p433
aVDoes
p434
aVDoesnt
p435
aVDoing
p436
aVDoll
p437
aVDont
p438
aVDoris
p439
aVDot
p440
aVDown
p441
aVDragged
p442
aVDragism
p443
aVDream
p444
aVDreamin
p445
aVDreaming
p446
aVDressed
p447
aVDrew
p448
aVDrifting
p449
aVDrink
p450
aVDrinking
p451
aVDripping
p452
aVDrive
p453
aVDriving
p454
aVDrop
p455
aVDropped
p456
aVDrove
p457
aVDrown
p458
aVDrumming
p459
aVDrummond
p460
aVDrums
p461
aVDrunk
p462
aVDu
p463
aVDue
p464
aVDuke
p465
aVDutchess
p466
aVDying
p467
aVDylan
p468
aVDylans
p469
aVDynasty
p470
aVDysfunction
p471
aVE
aVETs
p472
aVEach
p473
aVEarth
p474
aVEast
p475
aVEastern
p476
aVEasy
p477
aVEating
p478
aVEdgar
p479
aVEdison
p480
aVEh
p481
aVEiffel
p482
aVEight
p483
aVEinmal
p484
aVEither
p485
aVEleanor
p486
aVElectric
p487
aVElementary
p488
aVElevator
p489
aVElmo
p490
aVElvis
p491
aVEmily
p492
aVEmilys
p493
aVEmptied
p494
aVEndless
p495
aVEngland
p496
aVEnglish
p497
aVEnjoy
p498
aVEnoch
p499
aVEnough
p500
aVEnraged
p501
aVEntschuldigst
p502
aVEspecially
p503
aVEvberybody
p504
aVEven
p505
aVEver
p506
aVEverett
p507
aVEvery
p508
aVEverybody
p509
aVEverybodys
p510
aVEveryone
p511
aVEveryones
p512
aVEverything
p513
aVEverythings
p514
aVEverywhere
p515
aVEvrybody
p516
aVEvrybodys
p517
aVEvryones
p518
aVEvrywhere
p519
aVExactly
p520
aVExcept
p521
aVExchanging
p522
aVExcite
p523
aVExcuse
p524
aVExistence
p525
aVExpect
p526
aVExpert
p527
aVEye
p528
aVEyes
p529
aVF
aVFBI
p530
aVFace
p531
aVFail
p532
aVFairwhat
p533
aVFaithful
p534
aVFaking
p535
aVFall
p536
aVFallen
p537
aVFalling
p538
aVFancy
p539
aVFanny
p540
aVFanques
p541
aVFar
p542
aVFast
p543
aVFaster
p544
aVFather
p545
aVFavoritism
p546
aVFearless
p547
aVFeaturing
p548
aVFed
p549
aVFeel
p550
aVFeelin
p551
aVFeeling
p552
aVFeelings
p553
aVFeels
p554
aVFeet
p555
aVFell
p556
aVFellas
p557
aVFever
p558
aVFields
p559
aVFifty
p560
aVFight
p561
aVFighting
p562
aVFigure
p563
aVFill
p564
aVFilled
p565
aVFilling
p566
aVFinally
p567
aVFind
p568
aVFingers
p569
aVFire
p570
aVFirefly
p571
aVFirst
p572
aVFish
p573
aVFishops
p574
aVFive
p575
aVFivehour
p576
aVFix
p577
aVFixing
p578
aVFlash
p579
aVFlashback
p580
aVFlashing
p581
aVFlew
p582
aVFloat
p583
aVFloating
p584
aVFlowers
p585
aVFlowing
p586
aVFly
p587
aVFlying
p588
aVFollow
p589
aVFollowing
p590
aVFond
p591
aVFool
p592
aVFor
p593
aVForever
p594
aVForget
p595
aVForgetting
p596
aVForgive
p597
aVForgot
p598
aVFound
p599
aVFour
p600
aVFraiser
p601
aVFramed
p602
aVFrance
p603
aVFree
p604
aVFreeman
p605
aVFresh
p606
aVFriday
p607
aVFrisco
p608
aVFrom
p609
aVFucker
p610
aVFull
p611
aVFumbling
p612
aVFun
p613
aVFunky
p614
aVFunny
p615
aVG
aVGarbo
p616
aVGarden
p617
aVGate
p618
aVGather
p619
aVGave
p620
aVGee
p621
aVGeorge
p622
aVGeorgia
p623
aVGeorgias
p624
aVGeorgie
p625
aVGestern
p626
aVGet
p627
aVGets
p628
aVGetting
p629
aVGhosts
p630
aVGibraltar
p631
aVGideon
p632
aVGideons
p633
aVGimme
p634
aVGinsberg
p635
aVGirl
p636
aVGive
p637
aVGiven
p638
aVGives
p639
aVGiving
p640
aVGlories
p641
aVGo
p642
aVGod
p643
aVGoddess
p644
aVGods
p645
aVGoes
p646
aVGoin
p647
aVGoing
p648
aVGolden
p649
aVGone
p650
aVGonna
p651
aVGoo
p652
aVGood
p653
aVGoodbye
p654
aVGoode
p655
aVGoodnight
p656
aVGot
p657
aVGotta
p658
aVGrab
p659
aVGrabs
p660
aVGracie
p661
aVGrandchildren
p662
aVGrandview
p663
aVGravity
p664
aVGreater
p665
aVGreen
p666
aVGreta
p667
aVGrowing
p668
aVGuess
p669
aVGunn
p670
aVGuru
p671
aVH
aVHa
p672
aVHad
p673
aVHalf
p674
aVHall
p675
aVHallelujah
p676
aVHalloween
p677
aVHand
p678
aVHang
p679
aVHangin
p680
aVHanging
p681
aVHappiness
p682
aVHappy
p683
aVHard
p684
aVHarder
p685
aVHare
p686
aVHark
p687
aVHarlowe
p688
aVHarrison
p689
aVHas
p690
aVHate
p691
aVHathaway
p692
aVHauling
p693
aVHave
p694
aVHavent
p695
aVHaving
p696
aVHazel
p697
aVHe
p698
aVHead
p699
aVHeaded
p700
aVHeading
p701
aVHeadlights
p702
aVHeads
p703
aVHealth
p704
aVHear
p705
aVHeard
p706
aVHearing
p707
aVHeart
p708
aVHeartache
p709
aVHeartbeat
p710
aVHeartbreakers
p711
aVHearts
p712
aVHeather
p713
aVHeaven
p714
aVHeavenly
p715
aVHeavens
p716
aVHeavy
p717
aVHed
p718
aVHela
p719
aVHell
p720
aVHello
p721
aVHellowow
p722
aVHelp
p723
aVHelping
p724
aVHelplessly
p725
aVHelter
p726
aVHendersons
p727
aVHenry
p728
aVHer
p729
aVHere
p730
aVHeres
p731
aVHes
p732
aVHey
p733
aVHid
p734
aVHide
p735
aVHigh
p736
aVHighway
p737
aVHill
p738
aVHills
p739
aVHilton
p740
aVHiltons
p741
aVHis
p742
aVHistory
p743
aVHit
p744
aVHitch
p745
aVHitting
p746
aVHm
p747
aVHmm
p748
aVHo
p749
aVHold
p750
aVHoldin
p751
aVHolding
p752
aVHolland
p753
aVHollowed
p754
aVHollywood
p755
aVHoly
p756
aVHome
p757
aVHomes
p758
aVHoney
p759
aVHoneymooning
p760
aVHoo
p761
aVHope
p762
aVHopefully
p763
aVHopelessly
p764
aVHoping
p765
aVHorrified
p766
aVHorse
p767
aVHot
p768
aVHotter
p769
aVHouse
p770
aVHovering
p771
aVHow
p772
aVHowd
p773
aVHowever
p774
aVHows
p775
aVHu
p776
aVHuh
p777
aVHum
p778
aVHundred
p779
aVHundreds
p780
aVHung
p781
aVHungry
p782
aVHunt
p783
aVHurry
p784
aVHypnotized
p785
aVI
aVII
p786
aVIII
p787
aVIIIII
p788
aVIImeme
p789
aVIIsland
p790
aVIaaah
p791
aVIcarus
p792
aVIch
p793
aVId
p794
aVIdeas
p795
aVIf
p796
aVIgnoring
p797
aVIll
p798
aVIm
p799
aVIma
p800
aVImages
p801
aVImagine
p802
aVImmigrants
p803
aVImmobilized
p804
aVImpossible
p805
aVIn
p806
aVInciting
p807
aVIndia
p808
aVIndiana
p809
aVIndicate
p810
aVInformation
p811
aVInnocently
p812
aVInsane
p813
aVInside
p814
aVInstantly
p815
aVInstead
p816
aVInto
p817
aVInvited
p818
aVIs
p819
aVIsle
p820
aVIsnt
p821
aVIt
p822
aVItll
p823
aVIts
p824
aVIve
p825
aVJ
aVJAMMED
p826
aVJa
p827
aVJack
p828
aVJackknife
p829
aVJagger
p830
aVJai
p831
aVJames
p832
aVJane
p833
aVJapan
p834
aVJay
p835
aVJerusalem
p836
aVJesus
p837
aVJingle
p838
aVJo
p839
aVJoa
p840
aVJoan
p841
aVJoe
p842
aVJoes
p843
aVJohn
p844
aVJohnny
p845
aVJohnson
p846
aVJojo
p847
aVJones
p848
aVJude
p849
aVJulia
p850
aVJuliet
p851
aVJuly
p852
aVJump
p853
aVJumping
p854
aVJune
p855
aVJuniors
p856
aVJupiter
p857
aVJust
p858
aVJustified
p859
aVK
aVKaleidoscope
p860
aVKaleidoscopes
p861
aVKansas
p862
aVKanye
p863
aVKeep
p864
aVKeeping
p865
aVKeeps
p866
aVKenny
p867
aVKick
p868
aVKids
p869
aVKind
p870
aVKinda
p871
aVKindly
p872
aVKing
p873
aVKircaldy
p874
aVKiss
p875
aVKisses
p876
aVKissing
p877
aVKite
p878
aVKiwi
p879
aVKneel
p880
aVKnew
p881
aVKnocking
p882
aVKnow
p883
aVKnowing
p884
aVKnows
p885
aVKomm
p886
aVKrishna
p887
aVLA
p888
aVLa
p889
aVLadder
p890
aVLady
p891
aVLala
p892
aVLalalalalala
p893
aVLancashire
p894
aVLane
p895
aVLanterns
p896
aVLast
p897
aVLastly
p898
aVLate
p899
aVLately
p900
aVLaughed
p901
aVLaughing
p902
aVLay
p903
aVLaying
p904
aVLazy
p905
aVLea
p906
aVLead
p907
aVLean
p908
aVLeaning
p909
aVLear
p910
aVLearning
p911
aVLeary
p912
aVLeave
p913
aVLeaving
p914
aVLeft
p915
aVLend
p916
aVLends
p917
aVLesson
p918
aVLet
p919
aVLets
p920
aVLetting
p921
aVLhuna
p922
aVLie
p923
aVLies
p924
aVLife
p925
aVLift
p926
aVLifting
p927
aVLight
p928
aVLights
p929
aVLike
p930
aVLil
p931
aVLime
p932
aVLimitless
p933
aVLine
p934
aVLipstick
p935
aVListen
p936
aVListening
p937
aVLit
p938
aVLittle
p939
aVLive
p940
aVLived
p941
aVLiverpool
p942
aVLives
p943
aVLiving
p944
aVLizzy
p945
aVLock
p946
aVLocked
p947
aVLocusts
p948
aVLondon
p949
aVLonely
p950
aVLonesome
p951
aVLong
p952
aVLonger
p953
aVLook
p954
aVLookin
p955
aVLooking
p956
aVLooks
p957
aVLoosen
p958
aVLord
p959
aVLords
p960
aVLoretta
p961
aVLos
p962
aVLose
p963
aVLosing
p964
aVLost
p965
aVLouis
p966
aVLouisiana
p967
aVLove
p968
aVLoveOne
p969
aVLovely
p970
aVLovers
p971
aVLoves
p972
aVLovin
p973
aVLoving
p974
aVLow
p975
aVLucille
p976
aVLuck
p977
aVLucky
p978
aVLucy
p979
aVLurking
p980
aVLying
p981
aVMachines
p982
aVMad
p983
aVMadam
p984
aVMade
p985
aVMadism
p986
aVMadison
p987
aVMadonna
p988
aVMae
p989
aVMaggie
p990
aVMagic
p991
aVMagical
p992
aVMagill
p993
aVMahatma
p994
aVMail
p995
aVMailer
p996
aVMailman
p997
aVMajestys
p998
aVMake
p999
aVMakes
p1000
aVMakeup
p1001
aVMaking
p1002
aVMama
p1003
aVMan
p1004
aVMancha
p1005
aVMandalay
p1006
aVMandolin
p1007
aVMany
p1008
aVMao
p1009
aVMargarita
p1010
aVMarianne
p1011
aVMarie
p1012
aVMarigold
p1013
aVMarry
p1014
aVMartha
p1015
aVMartin
p1016
aVMarvel
p1017
aVMary
p1018
aVMaserati
p1019
aVMatches
p1020
aVMatt
p1021
aVMatter
p1022
aVMax
p1023
aVMaxwell
p1024
aVMaxwells
p1025
aVMay
p1026
aVMaybe
p1027
aVMcCartney
p1028
aVMcGraw
p1029
aVMcKenzie
p1030
aVMe
p1031
aVMean
p1032
aVMeans
p1033
aVMeanwhile
p1034
aVMeasured
p1035
aVMeditations
p1036
aVMeet
p1037
aVMeetin
p1038
aVMeeting
p1039
aVMemories
p1040
aVMemorize
p1041
aVMemorizing
p1042
aVMemphis
p1043
aVMen
p1044
aVMended
p1045
aVMerry
p1046
aVMessrs
p1047
aVMexican
p1048
aVMiami
p1049
aVMichelle
p1050
aVMichigan
p1051
aVMidnight
p1052
aVMight
p1053
aVMiles
p1054
aVMilk
p1055
aVMilky
p1056
aVMillions
p1057
aVMind
p1058
aVMine
p1059
aVMinisters
p1060
aVMiscommunications
p1061
aVMisery
p1062
aVMiss
p1063
aVMissed
p1064
aVMissing
p1065
aVMississippi
p1066
aVMister
p1067
aVMisty
p1068
aVMisunderstanding
p1069
aVMix
p1070
aVMm
p1071
aVMmm
p1072
aVMohammed
p1073
aVMojo
p1074
aVMolly
p1075
aVMonday
p1076
aVMondays
p1077
aVMoney
p1078
aVMongolian
p1079
aVMood
p1080
aVMoonlight
p1081
aVMore
p1082
aVMorning
p1083
aVMorton
p1084
aVMosaic
p1085
aVMoscow
p1086
aVMoses
p1087
aVMother
p1088
aVMotorcars
p1089
aVMotortrade
p1090
aVMountain
p1091
aVMountie
p1092
aVMove
p1093
aVMoving
p1094
aVMozart
p1095
aVMr
p1096
aVMrDog
p1097
aVMummy
p1098
aVMundo
p1099
aVMusic
p1100
aVMust
p1101
aVMustang
p1102
aVMustard
p1103
aVMy
p1104
aVMystery
p1105
aVNa
p1106
aVNamed
p1107
aVNana
p1108
aVNancy
p1109
aVNashville
p1110
aVNational
p1111
aVNations
p1112
aVNatures
p1113
aVNearly
p1114
aVNeed
p1115
aVNeither
p1116
aVNelson
p1117
aVNever
p1118
aVNew
p1119
aVNews
p1120
aVNewspaper
p1121
aVNext
p1122
aVNice
p1123
aVNight
p1124
aVNikes
p1125
aVNo
p1126
aVNobody
p1127
aVNobodyd
p1128
aVNobodys
p1129
aVNone
p1130
aVNoones
p1131
aVNorman
p1132
aVNorth
p1133
aVNorthern
p1134
aVNorwegian
p1135
aVNot
p1136
aVNothin
p1137
aVNothing
p1138
aVNothings
p1139
aVNothins
p1140
aVNow
p1141
aVNowhere
p1142
aVNumber
p1143
aVO
aVOBell
p1144
aVOK
p1145
aVOb
p1146
aVObla
p1147
aVOblaDiBlaDa
p1148
aVObsessed
p1149
aVOf
p1150
aVOff
p1151
aVOfficer
p1152
aVOften
p1153
aVOh
p1154
aVOhh
p1155
aVOhhh
p1156
aVOhhhh
p1157
aVOhhhhhhhhhhhhhhh
p1158
aVOhoh
p1159
aVOhohohwhoawhoayeaah
p1160
aVOil
p1161
aVOk
p1162
aVOlOlOlOlOl
p1163
aVOld
p1164
aVOm
p1165
aVOn
p1166
aVOnce
p1167
aVOne
p1168
aVOnly
p1169
aVOno
p1170
aVOo
p1171
aVOoh
p1172
aVOohoohooh
p1173
aVOoo
p1174
aVOooh
p1175
aVOooooh
p1176
aVOoooohhhhhhh
p1177
aVOooooo
p1178
aVOoooooh
p1179
aVOooooooh
p1180
aVOops
p1181
aVOpen
p1182
aVOpposing
p1183
aVOr
p1184
aVOriginal
p1185
aVOrleans
p1186
aVOsaka
p1187
aVOscar
p1188
aVOught
p1189
aVOughta
p1190
aVOur
p1191
aVOut
p1192
aVOutro
p1193
aVOutside
p1194
aVOutstretched
p1195
aVOver
p1196
aVOw
p1197
aVOxford
p1198
aVOy
p1199
aVP
aVPA
p1200
aVPJ
p1201
aVPS
p1202
aVPablo
p1203
aVPacing
p1204
aVPack
p1205
aVPaid
p1206
aVPain
p1207
aVPaint
p1208
aVPainted
p1209
aVPainting
p1210
aVPam
p1211
aVPanza
p1212
aVPapa
p1213
aVPaperback
p1214
aVParachutes
p1215
aVParalyzed
p1216
aVParanoias
p1217
aVParaparaparadise
p1218
aVParis
p1219
aVPart
p1220
aVPass
p1221
aVPast
p1222
aVPatagonian
p1223
aVPathway
p1224
aVPatiently
p1225
aVPaul
p1226
aVPauses
p1227
aVPayphone
p1228
aVPeace
p1229
aVPeaceLoveOne
p1230
aVPenny
p1231
aVPeople
p1232
aVPepper
p1233
aVPeppers
p1234
aVPerfect
p1235
aVPerfection
p1236
aVPerforms
p1237
aVPerhaps
p1238
aVPerkins
p1239
aVPermanent
p1240
aVPeter
p1241
aVPfeiffer
p1242
aVPhantom
p1243
aVPhiladelphia
p1244
aVPhoto
p1245
aVPick
p1246
aVPicked
p1247
aVPicket
p1248
aVPicking
p1249
aVPicks
p1250
aVPicture
p1251
aVPictures
p1252
aVPierce
p1253
aVPilchard
p1254
aVPilots
p1255
aVPink
p1256
aVPinned
p1257
aVPit
p1258
aVPitt
p1259
aVPity
p1260
aVPlaces
p1261
aVPlain
p1262
aVPlanets
p1263
aVPlanning
p1264
aVPlastic
p1265
aVPlay
p1266
aVPlayin
p1267
aVPlaying
p1268
aVPlease
p1269
aVPleasure
p1270
aVPlus
p1271
aVPoe
p1272
aVPoetry
p1273
aVPolaroid
p1274
aVPolythene
p1275
aVPools
p1276
aVPop
p1277
aVPopeyes
p1278
aVPossessing
p1279
aVPostman
p1280
aVPour
p1281
aVPouring
p1282
aVPowell
p1283
aVPrairie
p1284
aVPrairies
p1285
aVPray
p1286
aVPraying
p1287
aVPreChorus
p1288
aVPresley
p1289
aVPretend
p1290
aVPretending
p1291
aVPrettiest
p1292
aVPretty
p1293
aVPride
p1294
aVPriests
p1295
aVProbably
p1296
aVPromise
p1297
aVPromises
p1298
aVPropekt
p1299
aVProspektor
p1300
aVProtected
p1301
aVProve
p1302
aVProved
p1303
aVProvoke
p1304
aVPrrr
p1305
aVPrudence
p1306
aVPull
p1307
aVPulling
p1308
aVPulls
p1309
aVPush
p1310
aVPushing
p1311
aVPut
p1312
aVPuts
p1313
aVPutting
p1314
aVPyramids
p1315
aVQuando
p1316
aVQueen
p1317
aVQuestions
p1318
aVQuesto
p1319
aVQuiet
p1320
aVQuietly
p1321
aVRabbis
p1322
aVRaccoon
p1323
aVRace
p1324
aVRadiant
p1325
aVRag
p1326
aVRagism
p1327
aVRaided
p1328
aVRailman
p1329
aVRain
p1330
aVRaised
p1331
aVRaleigh
p1332
aVRather
p1333
aVRattle
p1334
aVRay
p1335
aVReaching
p1336
aVRead
p1337
aVReady
p1338
aVRealists
p1339
aVRealize
p1340
aVReally
p1341
aVRecalling
p1342
aVRecords
p1343
aVRed
p1344
aVRefuse
p1345
aVRegrets
p1346
aVRegretting
p1347
aVReign
p1348
aVRemember
p1349
aVRemembering
p1350
aVRemind
p1351
aVReminded
p1352
aVReminds
p1353
aVRepair
p1354
aVRepeating
p1355
aVReplace
p1356
aVRequest
p1357
aVRescue
p1358
aVResist
p1359
aVRest
p1360
aVResting
p1361
aVRestless
p1362
aVRevolution
p1363
aVRevolutionaries
p1364
aVRichard
p1365
aVRide
p1366
aVRigby
p1367
aVRight
p1368
aVRing
p1369
aVRingo
p1370
aVRishikesh
p1371
aVRita
p1372
aVRiver
p1373
aVRivers
p1374
aVRiviera
p1375
aVRobert
p1376
aVRocinante
p1377
aVRock
p1378
aVRocks
p1379
aVRocky
p1380
aVRockys
p1381
aVRoll
p1382
aVRolling
p1383
aVRoman
p1384
aVRomeo
p1385
aVRosa
p1386
aVRose
p1387
aVRosemary
p1388
aVRound
p1389
aVRuby
p1390
aVRumor
p1391
aVRun
p1392
aVRunaway
p1393
aVRunners
p1394
aVRunning
p1395
aVSNL
p1396
aVSadie
p1397
aVSadly
p1398
aVSaid
p1399
aVSail
p1400
aVSaint
p1401
aVSake
p1402
aVSalesman
p1403
aVSally
p1404
aVSallys
p1405
aVSalt
p1406
aVSam
p1407
aVSame
p1408
aVSancho
p1409
aVSanta
p1410
aVSat
p1411
aVSatan
p1412
aVSatisfaction
p1413
aVSatisfied
p1414
aVSaturday
p1415
aVSave
p1416
aVSaving
p1417
aVSavoy
p1418
aVSaw
p1419
aVSaxon
p1420
aVSay
p1421
aVSaying
p1422
aVSays
p1423
aVScared
p1424
aVScarlet
p1425
aVSce
p1426
aVSchn
p1427
aVSchner
p1428
aVSchool
p1429
aVScience
p1430
aVScratch
p1431
aVScream
p1432
aVScreaming
p1433
aVSea
p1434
aVSean
p1435
aVSearchin
p1436
aVSearching
p1437
aVSeas
p1438
aVSeason
p1439
aVSeasons
p1440
aVSee
p1441
aVSeeing
p1442
aVSeems
p1443
aVSeen
p1444
aVSees
p1445
aVSeine
p1446
aVSemolina
p1447
aVSend
p1448
aVSeptember
p1449
aVSeptembers
p1450
aVSergeant
p1451
aVSet
p1452
aVSeven
p1453
aVSew
p1454
aVSexy
p1455
aVSgt
p1456
aVShagism
p1457
aVShake
p1458
aVShaking
p1459
aVSharing
p1460
aVShattered
p1461
aVShaves
p1462
aVShe
p1463
aVShears
p1464
aVShed
p1465
aVSheepdog
p1466
aVSheik
p1467
aVShell
p1468
aVShepherds
p1469
aVShes
p1470
aVShewe
p1471
aVShifting
p1472
aVShine
p1473
aVShines
p1474
aVShivers
p1475
aVShoes
p1476
aVShoespurse
p1477
aVShoot
p1478
aVShorty
p1479
aVShould
p1480
aVShouldnt
p1481
aVShouldve
p1482
aVShout
p1483
aVShow
p1484
aVShowed
p1485
aVShows
p1486
aVShrouded
p1487
aVShut
p1488
aVShy
p1489
aVSick
p1490
aVSie
p1491
aVSikh
p1492
aVSilence
p1493
aVSilent
p1494
aVSilently
p1495
aVSilly
p1496
aVSilver
p1497
aVSimon
p1498
aVSimply
p1499
aVSince
p1500
aVSing
p1501
aVSinger
p1502
aVSinging
p1503
aVSinking
p1504
aVSipping
p1505
aVSir
p1506
aVSisters
p1507
aVSit
p1508
aVSittin
p1509
aVSitting
p1510
aVSix
p1511
aVSixteen
p1512
aVSkies
p1513
aVSkip
p1514
aVSky
p1515
aVSkyfall
p1516
aVSlaggers
p1517
aVSlammin
p1518
aVSlander
p1519
aVSlap
p1520
aVSleep
p1521
aVSleeping
p1522
aVSleeps
p1523
aVSlip
p1524
aVSlipped
p1525
aVSlow
p1526
aVSlowly
p1527
aVSlows
p1528
aVSmall
p1529
aVSmiles
p1530
aVSmith
p1531
aVSmoke
p1532
aVSmothers
p1533
aVSnap
p1534
aVSneakin
p1535
aVSneaking
p1536
aVSnow
p1537
aVSo
p1538
aVSoaking
p1539
aVSoldier
p1540
aVSoldiers
p1541
aVSome
p1542
aVSomebody
p1543
aVSomeday
p1544
aVSomehow
p1545
aVSomell
p1546
aVSomeone
p1547
aVSomething
p1548
aVSomethings
p1549
aVSometime
p1550
aVSometimes
p1551
aVSomewhere
p1552
aVSon
p1553
aVSongs
p1554
aVSonny
p1555
aVSont
p1556
aVSoon
p1557
aVSooth
p1558
aVSophistication
p1559
aVSorry
p1560
aVSounded
p1561
aVSounds
p1562
aVSour
p1563
aVSouth
p1564
aVSouthampton
p1565
aVSpain
p1566
aVSpeak
p1567
aVSpeaking
p1568
aVSpecter
p1569
aVSpelling
p1570
aVSpend
p1571
aVSpending
p1572
aVSpent
p1573
aVSpinning
p1574
aVSpitting
p1575
aVSplitting
p1576
aVSpoon
p1577
aVSpread
p1578
aVSquare
p1579
aVSt
p1580
aVStability
p1581
aVStand
p1582
aVStanding
p1583
aVStare
p1584
aVStaring
p1585
aVStars
p1586
aVStart
p1587
aVState
p1588
aVStating
p1589
aVStay
p1590
aVStaying
p1591
aVSteal
p1592
aVStealing
p1593
aVStep
p1594
aVStephen
p1595
aVStepping
p1596
aVStill
p1597
aVStirring
p1598
aVStole
p1599
aVStolen
p1600
aVStood
p1601
aVStop
p1602
aVStraight
p1603
aVStrange
p1604
aVStrangers
p1605
aVStrawberries
p1606
aVStrawberry
p1607
aVStreet
p1608
aVStriking
p1609
aVStripped
p1610
aVStrips
p1611
aVStrong
p1612
aVStruggled
p1613
aVStrung
p1614
aVStuck
p1615
aVStudying
p1616
aVStumbled
p1617
aVStupid
p1618
aVSuch
p1619
aVSuddenly
p1620
aVSue
p1621
aVSummer
p1622
aVSummers
p1623
aVSun
p1624
aVSunday
p1625
aVSundays
p1626
aVSunlight
p1627
aVSunrise
p1628
aVSunset
p1629
aVSuper
p1630
aVSuperhero
p1631
aVSuperior
p1632
aVSuperman
p1633
aVSuperstar
p1634
aVSure
p1635
aVSurely
p1636
aVSurprisingly
p1637
aVSwanee
p1638
aVSwaying
p1639
aVSwear
p1640
aVSweat
p1641
aVSweep
p1642
aVSweet
p1643
aVSweeter
p1644
aVSweetest
p1645
aVSweezy
p1646
aVSwept
p1647
aVSwift
p1648
aVSwifts
p1649
aVSwimming
p1650
aVSwinging
p1651
aVSwish
p1652
aVSwitch
p1653
aVSwoop
p1654
aVSwore
p1655
aVT
aVTV
p1656
aVTagism
p1657
aVTake
p1658
aVTaken
p1659
aVTakes
p1660
aVTaking
p1661
aVTalk
p1662
aVTalking
p1663
aVTalks
p1664
aVTall
p1665
aVTangled
p1666
aVTap
p1667
aVTarget
p1668
aVTasting
p1669
aVTate
p1670
aVTattooed
p1671
aVTaxi
p1672
aVTaylor
p1673
aVTchaikovsky
p1674
aVTeacher
p1675
aVTearin
p1676
aVTearing
p1677
aVTears
p1678
aVTed
p1679
aVTeddy
p1680
aVTeddys
p1681
aVTelevisions
p1682
aVTell
p1683
aVTelling
p1684
aVTen
p1685
aVTennessee
p1686
aVTeresa
p1687
aVTexas
p1688
aVThan
p1689
aVThank
p1690
aVThat
p1691
aVThatll
p1692
aVThats
p1693
aVThe
p1694
aVTheir
p1695
aVThen
p1696
aVThere
p1697
aVThered
p1698
aVTherell
p1699
aVTheres
p1700
aVThese
p1701
aVThey
p1702
aVTheyd
p1703
aVTheyll
p1704
aVTheyre
p1705
aVTheyve
p1706
aVThings
p1707
aVThink
p1708
aVThinking
p1709
aVThirty
p1710
aVThirtyone
p1711
aVThis
p1712
aVThisism
p1713
aVThose
p1714
aVThough
p1715
aVThought
p1716
aVThoughts
p1717
aVThree
p1718
aVThrough
p1719
aVThrow
p1720
aVThrowing
p1721
aVThursday
p1722
aVTicking
p1723
aVTides
p1724
aVTie
p1725
aVTiffanys
p1726
aVTight
p1727
aVTil
p1728
aVTill
p1729
aVTim
p1730
aVTime
p1731
aVTimes
p1732
aVTimmy
p1733
aVTiny
p1734
aVTire
p1735
aVTired
p1736
aVTo
p1737
aVToday
p1738
aVTogether
p1739
aVTold
p1740
aVTommy
p1741
aVTomorrow
p1742
aVTonight
p1743
aVTonights
p1744
aVToo
p1745
aVTook
p1746
aVTop
p1747
aVTossing
p1748
aVTouch
p1749
aVTouches
p1750
aVTouching
p1751
aVTour
p1752
aVTowards
p1753
aVTowering
p1754
aVTra
p1755
aVTrained
p1756
aVTrains
p1757
aVTrapped
p1758
aVTravel
p1759
aVTraveling
p1760
aVTreasure
p1761
aVTreat
p1762
aVTreated
p1763
aVTree
p1764
aVTres
p1765
aVTried
p1766
aVTrouble
p1767
aVTroubles
p1768
aVTrue
p1769
aVTrust
p1770
aVTruth
p1771
aVTry
p1772
aVTryin
p1773
aVTrying
p1774
aVTryna
p1775
aVTshirt
p1776
aVTshirts
p1777
aVTucson
p1778
aVTuesday
p1779
aVTuesdays
p1780
aVTuned
p1781
aVTurn
p1782
aVTurned
p1783
aVTurning
p1784
aVTurns
p1785
aVTwenty
p1786
aVTwentyeight
p1787
aVTwilight
p1788
aVTwist
p1789
aVTwo
p1790
aVTyler
p1791
aVUFO
p1792
aVUS
p1793
aVUSA
p1794
aVUSSR
p1795
aVUgh
p1796
aVUh
p1797
aVUkraine
p1798
aVUm
p1799
aVUmbrellas
p1800
aVUnd
p1801
aVUnder
p1802
aVUnderneath
p1803
aVUnderstand
p1804
aVUnharmed
p1805
aVUnited
p1806
aVUnkiss
p1807
aVUnless
p1808
aVUnlike
p1809
aVUntake
p1810
aVUntil
p1811
aVUntouchable
p1812
aVUp
p1813
aVUpon
p1814
aVUse
p1815
aVUsed
p1816
aVVMA
p1817
aVValentine
p1818
aVValerie
p1819
aVVenus
p1820
aVVera
p1821
aVVerse
p1822
aVVerstand
p1823
aVVery
p1824
aVVienna
p1825
aVWait
p1826
aVWaited
p1827
aVWaiting
p1828
aVWaits
p1829
aVWake
p1830
aVWakin
p1831
aVWalk
p1832
aVWalked
p1833
aVWalkin
p1834
aVWalking
p1835
aVWallflowers
p1836
aVWalls
p1837
aVWalter
p1838
aVWandered
p1839
aVWanna
p1840
aVWant
p1841
aVWar
p1842
aVWarm
p1843
aVWary
p1844
aVWas
p1845
aVWashed
p1846
aVWasnt
p1847
aVWasted
p1848
aVWatch
p1849
aVWatched
p1850
aVWatching
p1851
aVWater
p1852
aVWay
p1853
aVWe
p1854
aVWear
p1855
aVWearing
p1856
aVWeather
p1857
aVWeaving
p1858
aVWed
p1859
aVWedding
p1860
aVWednesday
p1861
aVWelcome
p1862
aVWell
p1863
aVWent
p1864
aVWere
p1865
aVWeve
p1866
aVWha
p1867
aVWhat
p1868
aVWhatcha
p1869
aVWhatd
p1870
aVWhatever
p1871
aVWhats
p1872
aVWhen
p1873
aVWhenever
p1874
aVWhere
p1875
aVWhered
p1876
aVWherever
p1877
aVWhether
p1878
aVWhich
p1879
aVWhichever
p1880
aVWhile
p1881
aVWhisky
p1882
aVWhisper
p1883
aVWhispered
p1884
aVWhispering
p1885
aVWhistle
p1886
aVWhite
p1887
aVWhites
p1888
aVWho
p1889
aVWhoa
p1890
aVWhoah
p1891
aVWhole
p1892
aVWholl
p1893
aVWhos
p1894
aVWhy
p1895
aVWhyd
p1896
aVWight
p1897
aVWigwam
p1898
aVWildest
p1899
aVWill
p1900
aVWilson
p1901
aVWind
p1902
aVWindows
p1903
aVWipe
p1904
aVWish
p1905
aVWishing
p1906
aVWith
p1907
aVWithout
p1908
aVWiz
p1909
aVWo
p1910
aVWoah
p1911
aVWoe
p1912
aVWoke
p1913
aVWoman
p1914
aVWomen
p1915
aVWonder
p1916
aVWonderin
p1917
aVWondering
p1918
aVWonderland
p1919
aVWonders
p1920
aVWondring
p1921
aVWont
p1922
aVWoo
p1923
aVWood
p1924
aVWords
p1925
aVWorking
p1926
aVWorld
p1927
aVWorse
p1928
aVWorth
p1929
aVWould
p1930
aVWoulda
p1931
aVWouldnt
p1932
aVWounds
p1933
aVWow
p1934
aVWrap
p1935
aVWrapped
p1936
aVWrite
p1937
aVWriting
p1938
aVWritten
p1939
aVWrong
p1940
aVX
aVX2
p1941
aVYay
p1942
aVYe
p1943
aVYea
p1944
aVYeah
p1945
aVYeahsee
p1946
aVYear
p1947
aVYeh
p1948
aVYellow
p1949
aVYes
p1950
aVYesterday
p1951
aVYet
p1952
aVYeti
p1953
aVYip
p1954
aVYo
p1955
aVYoko
p1956
aVYokohama
p1957
aVYork
p1958
aVYoshimi
p1959
aVYou
p1960
aVYoud
p1961
aVYoull
p1962
aVYoung
p1963
aVYounger
p1964
aVYour
p1965
aVYoure
p1966
aVYours
p1967
aVYouve
p1968
aVYuletide
p1969
aVZ
aVZ93
p1970
aVZealand
p1971
aVa
aVaaaaaah
p1972
aVaaaah
p1973
aVaba
p1974
aVable
p1975
aVaboard
p1976
aVabout
p1977
aVabove
p1978
aVabsent
p1979
aVabsolutely
p1980
aVabsurd
p1981
aVabuse
p1982
aVaccept
p1983
aVaccident
p1984
aVaccidents
p1985
aVaccused
p1986
aVache
p1987
aVaches
p1988
aVachin
p1989
aVaching
p1990
aVacing
p1991
aVaclappin
p1992
aVacorns
p1993
aVacquainted
p1994
aVacreepin
p1995
aVacross
p1996
aVact
p1997
aVacted
p1998
aVactin
p1999
aVacting
p2000
aVaction
p2001
aVactions
p2002
aVactress
p2003
aVacts
p2004
aVactually
p2005
aVadd
p2006
aVaddict
p2007
aVadds
p2008
aVadjust
p2009
aVadmit
p2010
aVadore
p2011
aVadvance
p2012
aVadventure
p2013
aVadventurous
p2014
aVadvice
p2015
aVafar
p2016
aVaffair
p2017
aVaffairs
p2018
aVaffection
p2019
aVafford
p2020
aVaflame
p2021
aVafloat
p2022
aVafraid
p2023
aVafter
p2024
aVaftermath
p2025
aVafternoon
p2026
aVagain
p2027
aVagainst
p2028
aVage
p2029
aVageing
p2030
aVages
p2031
aVago
p2032
aVagree
p2033
aVagrees
p2034
aVah
p2035
aVahead
p2036
aVahh
p2037
aVahhh
p2038
aVahhhh
p2039
aVahhuhhuh
p2040
aVahyeahyeahyeahyeahyeahyeah
p2041
aVaim
p2042
aVaiming
p2043
aVaint
p2044
aVair
p2045
aVairplanes
p2046
aVairport
p2047
aVairways
p2048
aVaisle
p2049
aVajust
p2050
aValarming
p2051
aValbum
p2052
aValerted
p2053
aValibi
p2054
aValien
p2055
aValight
p2056
aValign
p2057
aValigned
p2058
aValive
p2059
aVall
p2060
aVallAmerican
p2061
aVallein
p2062
aValley
p2063
aVallow
p2064
aValmost
p2065
aValoft
p2066
aValone
p2067
aValong
p2068
aValongin
p2069
aValongside
p2070
aValoud
p2071
aValready
p2072
aValright
p2073
aValso
p2074
aValternate
p2075
aValways
p2076
aVam
p2077
aVamazing
p2078
aVambition
p2079
aVamen
p2080
aVamore
p2081
aVamount
p2082
aVamovin
p2083
aVamoving
p2084
aVan
p2085
aVanaconda
p2086
aVand
p2087
aVane
p2088
aVanew
p2089
aVange
p2090
aVangel
p2091
aVangels
p2092
aVanger
p2093
aVangle
p2094
aVangry
p2095
aVanimal
p2096
aVanimals
p2097
aVanimalsmals
p2098
aVannoyed
p2099
aVanother
p2100
aVanothers
p2101
aVanswer
p2102
aVanswered
p2103
aVanswering
p2104
aVanswers
p2105
aVanthem
p2106
aVanticipations
p2107
aVany
p2108
aVanybody
p2109
aVanybodys
p2110
aVanyhow
p2111
aVanyhting
p2112
aVanymore
p2113
aVanyone
p2114
aVanything
p2115
aVanytime
p2116
aVanyway
p2117
aVanywhere
p2118
aVapart
p2119
aVapartment
p2120
aVaplaying
p2121
aVapologies
p2122
aVapologize
p2123
aVapology
p2124
aVapoppin
p2125
aVapparently
p2126
aVappear
p2127
aVappears
p2128
aVappetite
p2129
aVapplause
p2130
aVapple
p2131
aVapply
p2132
aVappointed
p2133
aVappointment
p2134
aVappreciate
p2135
aVapt
p2136
aVarches
p2137
aVarching
p2138
aVarchitecture
p2139
aVare
p2140
aVarent
p2141
aVargue
p2142
aVaringing
p2143
aVarise
p2144
aVarm
p2145
aVarmchair
p2146
aVarmor
p2147
aVarms
p2148
aVarmy
p2149
aVarocking
p2150
aVarolling
p2151
aVarose
p2152
aVaround
p2153
aVarrange
p2154
aVarranged
p2155
aVarrival
p2156
aVarrive
p2157
aVarrived
p2158
aVarrives
p2159
aVarriving
p2160
aVarrow
p2161
aVarrows
p2162
aVas
p2163
aVashamed
p2164
aVaside
p2165
aVask
p2166
aVasked
p2167
aVasking
p2168
aVasleep
p2169
aVasphalt
p2170
aVass
p2171
aVassistant
p2172
aVassure
p2173
aVassured
p2174
aVastray
p2175
aVat
p2176
aVatalkin
p2177
aVate
p2178
aVathere
p2179
aVaticking
p2180
aVatmosphere
p2181
aVatrying
p2182
aVattached
p2183
aVattack
p2184
aVattention
p2185
aVattitude
p2186
aVattract
p2187
aVattracted
p2188
aVattractively
p2189
aVaudience
p2190
aVaunt
p2191
aVauthorized
p2192
aVautopraphs
p2193
aVautumn
p2194
aVavenue
p2195
aVavoid
p2196
aVaw
p2197
aVawail
p2198
aVawait
p2199
aVawaits
p2200
aVawake
p2201
aVaware
p2202
aVawareness
p2203
aVaway
p2204
aVawayhey
p2205
aVawayyy
p2206
aVawful
p2207
aVawfully
p2208
aVawhen
p2209
aVawhile
p2210
aVawoke
p2211
aVawoken
p2212
aVawry
p2213
aVay
p2214
aVaye
p2215
aVba
p2216
aVbabe
p2217
aVbabies
p2218
aVbaby
p2219
aVbabylon
p2220
aVbabys
p2221
aVbabyyy
p2222
aVback
p2223
aVbackbeat
p2224
aVbackdoor
p2225
aVbackground
p2226
aVbacking
p2227
aVbackroad
p2228
aVbacks
p2229
aVbackseat
p2230
aVbackwards
p2231
aVbackx4
p2232
aVbackyard
p2233
aVbackyards
p2234
aVbacon
p2235
aVbad
p2236
aVbadly
p2237
aVbag
p2238
aVbags
p2239
aVbaked
p2240
aVbaking
p2241
aVbalalaikas
p2242
aVbalance
p2243
aVbalcony
p2244
aVball
p2245
aVballin
p2246
aVballoon
p2247
aVband
p2248
aVbandage
p2249
aVbands
p2250
aVbang
p2251
aVbanisters
p2252
aVbank
p2253
aVbanker
p2254
aVbanks
p2255
aVbanned
p2256
aVbar
p2257
aVbarber
p2258
aVbare
p2259
aVbarely
p2260
aVbargin
p2261
aVbarn
p2262
aVbarrel
p2263
aVbarrow
p2264
aVbars
p2265
aVbaseball
p2266
aVbased
p2267
aVbasically
p2268
aVbass
p2269
aVbath
p2270
aVbathroom
p2271
aVbaths
p2272
aVbattle
p2273
aVbattlefield
p2274
aVbattles
p2275
aVbay
p2276
aVbayeeaby
p2277
aVbe
p2278
aVbeach
p2279
aVbeads
p2280
aVbeam
p2281
aVbeams
p2282
aVbean
p2283
aVbear
p2284
aVbeast
p2285
aVbeat
p2286
aVbeatin
p2287
aVbeating
p2288
aVbeats
p2289
aVbeatup
p2290
aVbeautiful
p2291
aVbeautifulest
p2292
aVbeauty
p2293
aVbecame
p2294
aVbecause
p2295
aVbeckon
p2296
aVbecome
p2297
aVbecomes
p2298
aVbecoming
p2299
aVbed
p2300
aVbedroom
p2301
aVbeds
p2302
aVbeen
p2303
aVbeep
p2304
aVbeepm
p2305
aVbees
p2306
aVbefore
p2307
aVbeg
p2308
aVbegan
p2309
aVbegged
p2310
aVbeggin
p2311
aVbegging
p2312
aVbegin
p2313
aVbeginning
p2314
aVbegins
p2315
aVbegun
p2316
aVbehave
p2317
aVbehaving
p2318
aVbehavior
p2319
aVbehind
p2320
aVbei
p2321
aVbein
p2322
aVbeing
p2323
aVbeliefs
p2324
aVbelieve
p2325
aVbelieved
p2326
aVbeliever
p2327
aVbelievin
p2328
aVbelieving
p2329
aVbell
p2330
aVbelle
p2331
aVbells
p2332
aVbelly
p2333
aVbellyful
p2334
aVbelong
p2335
aVbelonged
p2336
aVbelongs
p2337
aVbelow
p2338
aVbelt
p2339
aVbench
p2340
aVbend
p2341
aVbended
p2342
aVbeneath
p2343
aVbenefit
p2344
aVbent
p2345
aVbentbacked
p2346
aVbesame
p2347
aVbeside
p2348
aVbesides
p2349
aVbest
p2350
aVbet
p2351
aVbetray
p2352
aVbetter
p2353
aVbetting
p2354
aVbetween
p2355
aVbeyond
p2356
aVbibles
p2357
aVbicycles
p2358
aVbiding
p2359
aVbien
p2360
aVbig
p2361
aVbigAim
p2362
aVbigger
p2363
aVbiggest
p2364
aVbill
p2365
aVbills
p2366
aVbin
p2367
aVbird
p2368
aVbirds
p2369
aVbirth
p2370
aVbirthday
p2371
aVbist
p2372
aVbit
p2373
aVbite
p2374
aVbits
p2375
aVbitten
p2376
aVbitter
p2377
aVbitterness
p2378
aVbittersweet
p2379
aVblack
p2380
aVblackbird
p2381
aVblada
p2382
aVblame
p2383
aVblank
p2384
aVblazing
p2385
aVbleachers
p2386
aVbled
p2387
aVbleed
p2388
aVbleeding
p2389
aVbleeds
p2390
aVbleeped
p2391
aVblessings
p2392
aVblew
p2393
aVblind
p2394
aVblindfold
p2395
aVblindin
p2396
aVblinding
p2397
aVblindly
p2398
aVblinds
p2399
aVblink
p2400
aVblinking
p2401
aVbliss
p2402
aVblisters
p2403
aVblock
p2404
aVblocked
p2405
aVblocks
p2406
aVblond
p2407
aVblood
p2408
aVbloodless
p2409
aVbloodshot
p2410
aVbloody
p2411
aVbloom
p2412
aVblossom
p2413
aVblow
p2414
aVblowin
p2415
aVblowing
p2416
aVblown
p2417
aVblows
p2418
aVblue
p2419
aVblues
p2420
aVblur
p2421
aVblurry
p2422
aVblush
p2423
aVblushing
p2424
aVboard
p2425
aVboardwalk
p2426
aVboat
p2427
aVboats
p2428
aVbob
p2429
aVboboom
p2430
aVbobtail
p2431
aVbobtailed
p2432
aVbody
p2433
aVbodys
p2434
aVboiling
p2435
aVboils
p2436
aVboldly
p2437
aVbom
p2438
aVbomb
p2439
aVbombing
p2440
aVbompa
p2441
aVbone
p2442
aVbones
p2443
aVbood
p2444
aVbooed
p2445
aVbook
p2446
aVbooks
p2447
aVboom
p2448
aVbootlace
p2449
aVboots
p2450
aVbop
p2451
aVborder
p2452
aVbore
p2453
aVbored
p2454
aVborn
p2455
aVborrow
p2456
aVboth
p2457
aVbother
p2458
aVbothered
p2459
aVbottle
p2460
aVbottom
p2461
aVbottoms
p2462
aVbough
p2463
aVbought
p2464
aVbounce
p2465
aVbouncing
p2466
aVbound
p2467
aVbounder
p2468
aVbout
p2469
aVbow
p2470
aVbowl
p2471
aVbows
p2472
aVbox
p2473
aVboxes
p2474
aVboy
p2475
aVboyfriend
p2476
aVboys
p2477
aVbra
p2478
aVbrag
p2479
aVbrain
p2480
aVbrains
p2481
aVbrakes
p2482
aVbranches
p2483
aVbrand
p2484
aVbrave
p2485
aVbraved
p2486
aVbraver
p2487
aVbreak
p2488
aVbreakdown
p2489
aVbreakfast
p2490
aVbreaking
p2491
aVbreaks
p2492
aVbreast
p2493
aVbreath
p2494
aVbreathe
p2495
aVbreathing
p2496
aVbreathless
p2497
aVbreeze
p2498
aVbreezy
p2499
aVbrew
p2500
aVbrewing
p2501
aVbribing
p2502
aVbricks
p2503
aVbride
p2504
aVbridesmaid
p2505
aVbridetobe
p2506
aVbridge
p2507
aVbridges
p2508
aVbrief
p2509
aVbriefcase
p2510
aVbright
p2511
aVbring
p2512
aVbringing
p2513
aVbrings
p2514
aVbristol
p2515
aVbroke
p2516
aVbroken
p2517
aVbrother
p2518
aVbrotherhood
p2519
aVbrothers
p2520
aVbrought
p2521
aVbrown
p2522
aVbrowneyed
p2523
aVbrowns
p2524
aVbruise
p2525
aVbrush
p2526
aVbrutality
p2527
aVbubble
p2528
aVbucket
p2529
aVbuild
p2530
aVbuilding
p2531
aVbuildings
p2532
aVbuilt
p2533
aVbulldog
p2534
aVbullet
p2535
aVbulletheaded
p2536
aVbulletproof
p2537
aVbullets
p2538
aVbumby
p2539
aVbump
p2540
aVbunch
p2541
aVbundle
p2542
aVbunk
p2543
aVburden
p2544
aVburied
p2545
aVburn
p2546
aVburned
p2547
aVburnin
p2548
aVburning
p2549
aVburns
p2550
aVburnt
p2551
aVburst
p2552
aVbursting
p2553
aVbury
p2554
aVbus
p2555
aVbusier
p2556
aVbusiness
p2557
aVbusy
p2558
aVbut
p2559
aVbuta
p2560
aVbutcher
p2561
aVbutted
p2562
aVbutterflies
p2563
aVbutterfly
p2564
aVbutton
p2565
aVbuttons
p2566
aVbuy
p2567
aVbuys
p2568
aVby
p2569
aVbye
p2570
aVbyebye
p2571
aVbyebyes
p2572
aVcab
p2573
aVcabin
p2574
aVcable
p2575
aVcabs
p2576
aVcafe
p2577
aVcaffeine
p2578
aVcage
p2579
aVcaged
p2580
aVcages
p2581
aVcake
p2582
aVcaked
p2583
aVcalifornia
p2584
aVcall
p2585
aVcalled
p2586
aVcallin
p2587
aVcalling
p2588
aVcalls
p2589
aVcalm
p2590
aVcame
p2591
aVcamera
p2592
aVcan
p2593
aVcanary
p2594
aVcandle
p2595
aVcandles
p2596
aVcandy
p2597
aVcane
p2598
aVcanisters
p2599
aVcanite
p2600
aVcannon
p2601
aVcannonball
p2602
aVcannot
p2603
aVcant
p2604
aVcanvas
p2605
aVcap
p2606
aVcaptain
p2607
aVcaptivated
p2608
aVcapture
p2609
aVcar
p2610
aVcarat
p2611
aVcarazn
p2612
aVcard
p2613
aVcardboard
p2614
aVcards
p2615
aVcare
p2616
aVcared
p2617
aVcareer
p2618
aVcareful
p2619
aVcareless
p2620
aVcares
p2621
aVcaressing
p2622
aVcaring
p2623
aVcarnival
p2624
aVcarols
p2625
aVcarousel
p2626
aVcarried
p2627
aVcarry
p2628
aVcarrying
p2629
aVcars
p2630
aVcart
p2631
aVcartoon
p2632
aVcase
p2633
aVcast
p2634
aVcastin
p2635
aVcastle
p2636
aVcastles
p2637
aVcasually
p2638
aVcat
p2639
aVcatapult
p2640
aVcatch
p2641
aVcatching
p2642
aVcathedrals
p2643
aVcats
p2644
aVcaught
p2645
aVcause
p2646
aVcaused
p2647
aVcausing
p2648
aVcautious
p2649
aVcave
p2650
aVcavemen
p2651
aVceiling
p2652
aVcelebrate
p2653
aVcelebrated
p2654
aVcelebrations
p2655
aVcelestial
p2656
aVceling
p2657
aVcell
p2658
aVcellophane
p2659
aVcemeteries
p2660
aVcent
p2661
aVcentered
p2662
aVcept
p2663
aVcertain
p2664
aVcertainly
p2665
aVcha
p2666
aVchachachachance
p2667
aVchain
p2668
aVchained
p2669
aVchains
p2670
aVchair
p2671
aVchairs
p2672
aVchalk
p2673
aVchallenge
p2674
aVchampagne
p2675
aVchampions
p2676
aVchance
p2677
aVchances
p2678
aVchandelier
p2679
aVchandeliers
p2680
aVchange
p2681
aVchanged
p2682
aVchanger
p2683
aVchanges
p2684
aVchangin
p2685
aVchanging
p2686
aVchaos
p2687
aVchapattis
p2688
aVchapter
p2689
aVcharities
p2690
aVcharity
p2691
aVcharm
p2692
aVcharming
p2693
aVchase
p2694
aVchasing
p2695
aVcheap
p2696
aVcheat
p2697
aVcheater
p2698
aVcheats
p2699
aVcheck
p2700
aVchecked
p2701
aVchecks
p2702
aVcheek
p2703
aVcheeks
p2704
aVcheer
p2705
aVcherry
p2706
aVchess
p2707
aVchest
p2708
aVchew
p2709
aVchewing
p2710
aVchica
p2711
aVchick
p2712
aVchicka
p2713
aVchicken
p2714
aVchicks
p2715
aVchild
p2716
aVchildhood
p2717
aVchildren
p2718
aVchildrens
p2719
aVchill
p2720
aVchills
p2721
aVchime
p2722
aVchimney
p2723
aVchin
p2724
aVchip
p2725
aVchips
p2726
aVchocolate
p2727
aVchoice
p2728
aVchoices
p2729
aVchoir
p2730
aVchoirs
p2731
aVchoke
p2732
aVchoked
p2733
aVchoking
p2734
aVchoose
p2735
aVchoosing
p2736
aVchords
p2737
aVchorus
p2738
aVchose
p2739
aVchosen
p2740
aVchow
p2741
aVchurch
p2742
aVcigarette
p2743
aVcigarettes
p2744
aVcircle
p2745
aVcircles
p2746
aVcircling
p2747
aVcircuitry
p2748
aVcircus
p2749
aVcities
p2750
aVcity
p2751
aVcitys
p2752
aVclaim
p2753
aVclarity
p2754
aVclass
p2755
aVclassic
p2756
aVclassics
p2757
aVclassroom
p2758
aVclay
p2759
aVclean
p2760
aVcleanse
p2761
aVclear
p2762
aVcleared
p2763
aVclearer
p2764
aVclearly
p2765
aVclever
p2766
aVcliff
p2767
aVclimb
p2768
aVclimbin
p2769
aVclimbing
p2770
aVclinging
p2771
aVclock
p2772
aVclocks
p2773
aVclose
p2774
aVclosed
p2775
aVcloser
p2776
aVclosest
p2777
aVcloset
p2778
aVclosing
p2779
aVclosly
p2780
aVclothes
p2781
aVcloud
p2782
aVcloudburst
p2783
aVclouds
p2784
aVcloudy
p2785
aVclown
p2786
aVclowning
p2787
aVclowns
p2788
aVclub
p2789
aVclubbing
p2790
aVclubs
p2791
aVclue
p2792
aVclumsy
p2793
aVclutch
p2794
aVclutched
p2795
aVcmon
p2796
aVcoaching
p2797
aVcoal
p2798
aVcoast
p2799
aVcoaster
p2800
aVcoat
p2801
aVcoats
p2802
aVcocker
p2803
aVcode
p2804
aVcodes
p2805
aVcoffee
p2806
aVcoincides
p2807
aVcold
p2808
aVcolder
p2809
aVcollapsed
p2810
aVcollege
p2811
aVcollide
p2812
aVcolor
p2813
aVcolors
p2814
aVcolour
p2815
aVcolourful
p2816
aVcomb
p2817
aVcombining
p2818
aVcome
p2819
aVcomeback
p2820
aVcomedy
p2821
aVcomes
p2822
aVcomfort
p2823
aVcomfortable
p2824
aVcomin
p2825
aVcoming
p2826
aVcomma
p2827
aVcommand
p2828
aVcomment
p2829
aVcommercial
p2830
aVcommon
p2831
aVcommonwealth
p2832
aVcommotion
p2833
aVcompare
p2834
aVcompares
p2835
aVcomparison
p2836
aVcompass
p2837
aVcompatible
p2838
aVcompetition
p2839
aVcomplacent
p2840
aVcomplain
p2841
aVcomplaining
p2842
aVcompletely
p2843
aVcomplex
p2844
aVcomplicate
p2845
aVcomplicated
p2846
aVcomplication
p2847
aVcomplications
p2848
aVcomprehend
p2849
aVcompromise
p2850
aVcomputers
p2851
aVcomrade
p2852
aVconceive
p2853
aVconcentrated
p2854
aVconcept
p2855
aVconcern
p2856
aVconcerned
p2857
aVconcrete
p2858
aVcondescending
p2859
aVcondition
p2860
aVconditions
p2861
aVconference
p2862
aVconfess
p2863
aVconfidence
p2864
aVconfidentially
p2865
aVconfuse
p2866
aVconfused
p2867
aVconfusing
p2868
aVconfusion
p2869
aVcongo
p2870
aVcongratulations
p2871
aVconnoisseur
p2872
aVconquer
p2873
aVconsequence
p2874
aVconsequences
p2875
aVconservative
p2876
aVconsider
p2877
aVconstellation
p2878
aVconstellations
p2879
aVconstitution
p2880
aVcontact
p2881
aVcontacts
p2882
aVcontemplating
p2883
aVcontemplation
p2884
aVcontend
p2885
aVcontent
p2886
aVcontest
p2887
aVcontraband
p2888
aVcontract
p2889
aVcontribution
p2890
aVcontrol
p2891
aVcontrolled
p2892
aVconversation
p2893
aVconversations
p2894
aVconvertible
p2895
aVcookies
p2896
aVcooking
p2897
aVcooky
p2898
aVcool
p2899
aVcooler
p2900
aVcopyright
p2901
aVcoquette
p2902
aVcoral
p2903
aVcorazon
p2904
aVcore
p2905
aVcorn
p2906
aVcorner
p2907
aVcornered
p2908
aVcorrect
p2909
aVcos
p2910
aVcost
p2911
aVcottage
p2912
aVcouch
p2913
aVcould
p2914
aVcoulda
p2915
aVcouldnt
p2916
aVcouldve
p2917
aVcounseller
p2918
aVcount
p2919
aVcounter
p2920
aVcountin
p2921
aVcounting
p2922
aVcountries
p2923
aVcountry
p2924
aVcouple
p2925
aVcourse
p2926
aVcourses
p2927
aVcoursing
p2928
aVcousins
p2929
aVcover
p2930
aVcovered
p2931
aVcovers
p2932
aVcowboy
p2933
aVcowboys
p2934
aVcows
p2935
aVcoy
p2936
aVcrack
p2937
aVcracker
p2938
aVcrackle
p2939
aVcracks
p2940
aVcrash
p2941
aVcrashed
p2942
aVcrashes
p2943
aVcrashing
p2944
aVcrave
p2945
aVcrawl
p2946
aVcrawled
p2947
aVcrawling
p2948
aVcrazier
p2949
aVcraziercraziercrazier
p2950
aVcrazy
p2951
aVcrazyyy
p2952
aVcream
p2953
aVcreated
p2954
aVcreation
p2955
aVcreatures
p2956
aVcreek
p2957
aVcreep
p2958
aVcreepin
p2959
aVcreeping
p2960
aVcreeps
p2961
aVcrept
p2962
aVcrests
p2963
aVcrickets
p2964
aVcried
p2965
aVcries
p2966
aVcrime
p2967
aVcritical
p2968
aVcritize
p2969
aVcrocodiles
p2970
aVcrooked
p2971
aVcross
p2972
aVcrossed
p2973
aVcrossing
p2974
aVcrossword
p2975
aVcrowd
p2976
aVcrowded
p2977
aVcrowds
p2978
aVcrown
p2979
aVcrucify
p2980
aVcruel
p2981
aVcruelest
p2982
aVcruising
p2983
aVcrumble
p2984
aVcrumbles
p2985
aVcrumbling
p2986
aVcrumbs
p2987
aVcrumpled
p2988
aVcrushed
p2989
aVcry
p2990
aVcryin
p2991
aVcrying
p2992
aVcrystal
p2993
aVcult
p2994
aVcup
p2995
aVcurb
p2996
aVcure
p2997
aVcured
p2998
aVcurious
p2999
aVcurrently
p3000
aVcurrents
p3001
aVcurse
p3002
aVcurses
p3003
aVcursing
p3004
aVcurtain
p3005
aVcurtained
p3006
aVcurtains
p3007
aVcurve
p3008
aVcuss
p3009
aVcustard
p3010
aVcustomer
p3011
aVcut
p3012
aVcute
p3013
aVcutie
p3014
aVcuts
p3015
aVcuz
p3016
aVcycle
p3017
aVcynics
p3018
aVd
aVda
p3019
aVdad
p3020
aVdada
p3021
aVdaddies
p3022
aVdaddy
p3023
aVdaddys
p3024
aVdaisies
p3025
aVdaisy
p3026
aVdamn
p3027
aVdamned
p3028
aVdampness
p3029
aVdamsel
p3030
aVdance
p3031
aVdanced
p3032
aVdancer
p3033
aVdances
p3034
aVdancin
p3035
aVdancing
p3036
aVdang
p3037
aVdanger
p3038
aVdangerous
p3039
aVdann
p3040
aVdaran
p3041
aVdare
p3042
aVdared
p3043
aVdark
p3044
aVdarker
p3045
aVdarkest
p3046
aVdarkies
p3047
aVdarkness
p3048
aVdarling
p3049
aVdarn
p3050
aVdarning
p3051
aVdart
p3052
aVdas
p3053
aVdash
p3054
aVdate
p3055
aVdatecant
p3056
aVdated
p3057
aVdates
p3058
aVdating
p3059
aVdaughter
p3060
aVdawn
p3061
aVdawning
p3062
aVday
p3063
aVdayat
p3064
aVdaybreak
p3065
aVdaydream
p3066
aVdaydreaming
p3067
aVdaylight
p3068
aVdays
p3069
aVde
p3070
aVdead
p3071
aVdeadend
p3072
aVdeadlines
p3073
aVdeal
p3074
aVdealing
p3075
aVdear
p3076
aVdearest
p3077
aVdeath
p3078
aVdebt
p3079
aVdecade
p3080
aVdecaying
p3081
aVdeceive
p3082
aVdeceiver
p3083
aVdeceiving
p3084
aVdecent
p3085
aVdecide
p3086
aVdecided
p3087
aVdecides
p3088
aVdeck
p3089
aVdeclare
p3090
aVdecorations
p3091
aVdedicate
p3092
aVdee
p3093
aVdeed
p3094
aVdeep
p3095
aVdeeper
p3096
aVdeepest
p3097
aVdeepfried
p3098
aVdeer
p3099
aVdefeat
p3100
aVdefeated
p3101
aVdefelice
p3102
aVdefending
p3103
aVdefense
p3104
aVdefenseless
p3105
aVdefenses
p3106
aVdefy
p3107
aVdegree
p3108
aVdegrees
p3109
aVdeine
p3110
aVdeinen
p3111
aVdelay
p3112
aVdelete
p3113
aVdelicate
p3114
aVdelight
p3115
aVdemanding
p3116
aVdemons
p3117
aVdemonstrate
p3118
aVden
p3119
aVdenied
p3120
aVdenim
p3121
aVdenkt
p3122
aVdentists
p3123
aVdeny
p3124
aVdenying
p3125
aVdepartment
p3126
aVdepending
p3127
aVdepressed
p3128
aVdepression
p3129
aVdepths
p3130
aVdescribe
p3131
aVdesert
p3132
aVdeserve
p3133
aVdeserved
p3134
aVdeserving
p3135
aVdesign
p3136
aVdesire
p3137
aVdesires
p3138
aVdespair
p3139
aVdesperate
p3140
aVdesperately
p3141
aVdesperation
p3142
aVdespite
p3143
aVdessert
p3144
aVdestined
p3145
aVdestroy
p3146
aVdestroyed
p3147
aVdestruction
p3148
aVdetail
p3149
aVdetermined
p3150
aVdevil
p3151
aVdevious
p3152
aVdevoted
p3153
aVdevotion
p3154
aVdew
p3155
aVdi
p3156
aVdial
p3157
aVdiamond
p3158
aVdiamonds
p3159
aVdiary
p3160
aVdice
p3161
aVdich
p3162
aVdid
p3163
aVdidididindi
p3164
aVdidnt
p3165
aVdie
p3166
aVdied
p3167
aVdies
p3168
aVdifference
p3169
aVdifferent
p3170
aVdifficult
p3171
aVdig
p3172
aVdigging
p3173
aVdignity
p3174
aVdim
p3175
aVdime
p3176
aVdimming
p3177
aVdiner
p3178
aVdinner
p3179
aVdinosaurs
p3180
aVdipping
p3181
aVdir
p3182
aVdirection
p3183
aVdirt
p3184
aVdirty
p3185
aVdisagree
p3186
aVdisappear
p3187
aVdisappeared
p3188
aVdisappearing
p3189
aVdisappears
p3190
aVdisappointment
p3191
aVdisapproves
p3192
aVdiscipline
p3193
aVdisco
p3194
aVdisconnect
p3195
aVdiscover
p3196
aVdiscovered
p3197
aVdiscovering
p3198
aVdiscreetly
p3199
aVdiscrete
p3200
aVdiscuss
p3201
aVdisease
p3202
aVdisgraces
p3203
aVdisguise
p3204
aVdisguised
p3205
aVdisplay
p3206
aVdisposition
p3207
aVdisregard
p3208
aVdisrespectful
p3209
aVdissolve
p3210
aVdistance
p3211
aVdistant
p3212
aVdistraction
p3213
aVdistress
p3214
aVditch
p3215
aVdive
p3216
aVdiverted
p3217
aVdividing
p3218
aVdivine
p3219
aVdizzy
p3220
aVdo
p3221
aVdoch
p3222
aVdock
p3223
aVdoctor
p3224
aVdodged
p3225
aVdoes
p3226
aVdoesnt
p3227
aVdog
p3228
aVdoggone
p3229
aVdogs
p3230
aVdoin
p3231
aVdoing
p3232
aVdoll
p3233
aVdollar
p3234
aVdollars
p3235
aVdolls
p3236
aVdon
p3237
aVdonated
p3238
aVdone
p3239
aVdont
p3240
aVdoo
p3241
aVdooby
p3242
aVdoom
p3243
aVdoomed
p3244
aVdoooh
p3245
aVdoor
p3246
aVdoors
p3247
aVdoorstep
p3248
aVdoorway
p3249
aVdos
p3250
aVdose
p3251
aVdouble
p3252
aVdoubt
p3253
aVdoubted
p3254
aVdoubts
p3255
aVdouchebags
p3256
aVdough
p3257
aVdouse
p3258
aVdovetail
p3259
aVdoving
p3260
aVdown
p3261
aVdowns
p3262
aVdownstairs
p3263
aVdowntown
p3264
aVdozen
p3265
aVdrag
p3266
aVdragon
p3267
aVdragons
p3268
aVdrags
p3269
aVdrain
p3270
aVdrama
p3271
aVdramatic
p3272
aVdrank
p3273
aVdraw
p3274
aVdrawer
p3275
aVdrawn
p3276
aVdreadful
p3277
aVdream
p3278
aVdreamed
p3279
aVdreamer
p3280
aVdreamers
p3281
aVdreamin
p3282
aVdreaming
p3283
aVdreams
p3284
aVdreamt
p3285
aVdreamy
p3286
aVdreary
p3287
aVdrehtest
p3288
aVdress
p3289
aVdressed
p3290
aVdresser
p3291
aVdresses
p3292
aVdressing
p3293
aVdrew
p3294
aVdried
p3295
aVdrift
p3296
aVdrifted
p3297
aVdrifting
p3298
aVdriftwood
p3299
aVdrilled
p3300
aVdrink
p3301
aVdrinkin
p3302
aVdrinking
p3303
aVdrinks
p3304
aVdripping
p3305
aVdrips
p3306
aVdrive
p3307
aVdriver
p3308
aVdrivers
p3309
aVdrives
p3310
aVdriveway
p3311
aVdrivin
p3312
aVdriving
p3313
aVdrop
p3314
aVdropped
p3315
aVdropper
p3316
aVdropping
p3317
aVdrops
p3318
aVdrought
p3319
aVdrove
p3320
aVdrown
p3321
aVdrowned
p3322
aVdrowning
p3323
aVdrug
p3324
aVdrugs
p3325
aVdrum
p3326
aVdrummer
p3327
aVdrummers
p3328
aVdrums
p3329
aVdrunk
p3330
aVdrunken
p3331
aVdry
p3332
aVdu
p3333
aVduchess
p3334
aVduck
p3335
aVducked
p3336
aVduckling
p3337
aVdues
p3338
aVdull
p3339
aVdumb
p3340
aVdungaree
p3341
aVdungeries
p3342
aVdusk
p3343
aVdust
p3344
aVdusty
p3345
aVdwarfs
p3346
aVdwell
p3347
aVdying
p3348
aVdysfunctional
p3349
aVe
aVeach
p3350
aVeager
p3351
aVeagle
p3352
aVear
p3353
aVearliest
p3354
aVearly
p3355
aVearn
p3356
aVearned
p3357
aVears
p3358
aVearth
p3359
aVearthquake
p3360
aVease
p3361
aVeasier
p3362
aVeasily
p3363
aVeasy
p3364
aVeat
p3365
aVeating
p3366
aVeats
p3367
aVecho
p3368
aVechoed
p3369
aVechoes
p3370
aVecstatic
p3371
aVedge
p3372
aVeducating
p3373
aVee
p3374
aVeffortlessly
p3375
aVegg
p3376
aVego
p3377
aVeh
p3378
aVeight
p3379
aVeighteen
p3380
aVeights
p3381
aVeightynine
p3382
aVeightyseven
p3383
aVein
p3384
aVeiner
p3385
aVeither
p3386
aVelectric
p3387
aVelephant
p3388
aVelephants
p3389
aVelevator
p3390
aVelse
p3391
aVelses
p3392
aVem
p3393
aVembers
p3394
aVembrace
p3395
aVemerge
p3396
aVemotion
p3397
aVemotions
p3398
aVempathize
p3399
aVemptied
p3400
aVemptiness
p3401
aVempty
p3402
aVenchanted
p3403
aVenchanting
p3404
aVend
p3405
aVenda
p3406
aVendear
p3407
aVendearing
p3408
aVended
p3409
aVending
p3410
aVendings
p3411
aVendless
p3412
aVends
p3413
aVene
p3414
aVenemies
p3415
aVenemy
p3416
aVenemys
p3417
aVengaged
p3418
aVengine
p3419
aVengines
p3420
aVenjoy
p3421
aVenough
p3422
aVensemble
p3423
aVentertain
p3424
aVentirely
p3425
aVequal
p3426
aVequipped
p3427
aVerase
p3428
aVerased
p3429
aVerasing
p3430
aVerodes
p3431
aVes
p3432
aVescalate
p3433
aVescape
p3434
aVescaping
p3435
aVeternally
p3436
aVeternity
p3437
aVeven
p3438
aVevening
p3439
aVever
p3440
aVeverchanging
p3441
aVeverglow
p3442
aVevergreens
p3443
aVeverlasting
p3444
aVevermore
p3445
aVevery
p3446
aVeverybody
p3447
aVeverybodys
p3448
aVeveryday
p3449
aVeveryone
p3450
aVeveryones
p3451
aVeverything
p3452
aVeverythings
p3453
aVeverytime
p3454
aVeverywhere
p3455
aVeveyone
p3456
aVevidence
p3457
aVevil
p3458
aVevilnatured
p3459
aVevolution
p3460
aVevrybodys
p3461
aVexactly
p3462
aVexamining
p3463
aVexcellent
p3464
aVexcept
p3465
aVexception
p3466
aVexchanged
p3467
aVexcited
p3468
aVexcitement
p3469
aVexciting
p3470
aVexclaim
p3471
aVexcuses
p3472
aVexcusing
p3473
aVexes
p3474
aVexhausting
p3475
aVexist
p3476
aVexistence
p3477
aVexit
p3478
aVexlovers
p3479
aVexman
p3480
aVexpect
p3481
aVexpected
p3482
aVexpecting
p3483
aVexpensive
p3484
aVexperience
p3485
aVexpert
p3486
aVexplain
p3487
aVexplanation
p3488
aVexplode
p3489
aVexplodes
p3490
aVexploding
p3491
aVexplosion
p3492
aVexplosive
p3493
aVexpose
p3494
aVexpress
p3495
aVextra
p3496
aVeye
p3497
aVeyeball
p3498
aVeyeballs
p3499
aVeyelids
p3500
aVeyes
p3501
aVeyeyes
p3502
aVfAce
p3503
aVface
p3504
aVfaces
p3505
aVfact
p3506
aVfactory
p3507
aVfacts
p3508
aVfade
p3509
aVfaded
p3510
aVfades
p3511
aVfading
p3512
aVfail
p3513
aVfailed
p3514
aVfailure
p3515
aVfaint
p3516
aVfair
p3517
aVfairies
p3518
aVfairy
p3519
aVfairytale
p3520
aVfaith
p3521
aVfake
p3522
aVfaked
p3523
aVfakers
p3524
aVfaking
p3525
aVfall
p3526
aVfallen
p3527
aVfallin
p3528
aVfalling
p3529
aVfallout
p3530
aVfalls
p3531
aVfame
p3532
aVfamiliar
p3533
aVfamily
p3534
aVfamous
p3535
aVfan
p3536
aVfanclub
p3537
aVfancy
p3538
aVfantasies
p3539
aVfantasize
p3540
aVfantasy
p3541
aVfar
p3542
aVfares
p3543
aVfarm
p3544
aVfarther
p3545
aVfash
p3546
aVfashion
p3547
aVfast
p3548
aVfaster
p3549
aVfat
p3550
aVfate
p3551
aVfates
p3552
aVfather
p3553
aVfathers
p3554
aVfault
p3555
aVfavor
p3556
aVfavorite
p3557
aVfavourite
p3558
aVfear
p3559
aVfearless
p3560
aVfears
p3561
aVfeast
p3562
aVfeat
p3563
aVfed
p3564
aVfeed
p3565
aVfeel
p3566
aVfeelin
p3567
aVfeeling
p3568
aVfeelings
p3569
aVfeels
p3570
aVfeet
p3571
aVfelice
p3572
aVfell
p3573
aVfella
p3574
aVfelt
p3575
aVfence
p3576
aVfences
p3577
aVferdi
p3578
aVferdy
p3579
aVferocious
p3580
aVferry
p3581
aVfever
p3582
aVfew
p3583
aVfickle
p3584
aVfiction
p3585
aVfiddle
p3586
aVfield
p3587
aVfields
p3588
aVfierce
p3589
aVfifteen
p3590
aVfifty
p3591
aVfight
p3592
aVfighting
p3593
aVfights
p3594
aVfigure
p3595
aVfigured
p3596
aVfigures
p3597
aVfigurines
p3598
aVfill
p3599
aVfilled
p3600
aVfiller
p3601
aVfilling
p3602
aVfills
p3603
aVfilm
p3604
aVfilter
p3605
aVfinal
p3606
aVfinally
p3607
aVfind
p3608
aVfinding
p3609
aVfinds
p3610
aVfine
p3611
aVfing
p3612
aVfinger
p3613
aVfingernails
p3614
aVfingers
p3615
aVfingertips
p3616
aVfinish
p3617
aVfire
p3618
aVfired
p3619
aVfireflies
p3620
aVfirefly
p3621
aVfireflycatchin
p3622
aVfireman
p3623
aVfireplace
p3624
aVfires
p3625
aVfireside
p3626
aVfireworks
p3627
aVfirey
p3628
aVfiring
p3629
aVfirm
p3630
aVfirmly
p3631
aVfirst
p3632
aVfirstborn
p3633
aVfirstglance
p3634
aVfish
p3635
aVfisherman
p3636
aVfishing
p3637
aVfishwife
p3638
aVfist
p3639
aVfit
p3640
aVfive
p3641
aVfix
p3642
aVfixing
p3643
aVflag
p3644
aVflagellation
p3645
aVflake
p3646
aVflame
p3647
aVflames
p3648
aVflash
p3649
aVflashback
p3650
aVflashbacks
p3651
aVflashes
p3652
aVflashing
p3653
aVflat
p3654
aVflatter
p3655
aVflawless
p3656
aVflaws
p3657
aVflee
p3658
aVflesh
p3659
aVflew
p3660
aVflicker
p3661
aVflickered
p3662
aVflies
p3663
aVflight
p3664
aVflip
p3665
aVflirt
p3666
aVflirty
p3667
aVfloat
p3668
aVfloated
p3669
aVfloatin
p3670
aVfloating
p3671
aVfloats
p3672
aVflock
p3673
aVflood
p3674
aVfloor
p3675
aVfloors
p3676
aVflow
p3677
aVflower
p3678
aVflowers
p3679
aVflowing
p3680
aVflown
p3681
aVflows
p3682
aVflutter
p3683
aVfly
p3684
aVflying
p3685
aVflys
p3686
aVfocus
p3687
aVfog
p3688
aVfogs
p3689
aVfold
p3690
aVfolks
p3691
aVfollow
p3692
aVfollowed
p3693
aVfollowing
p3694
aVfonder
p3695
aVfood
p3696
aVfoods
p3697
aVfool
p3698
aVfoolin
p3699
aVfooling
p3700
aVfoolish
p3701
aVfools
p3702
aVfoot
p3703
aVfootage
p3704
aVfootball
p3705
aVfootsteps
p3706
aVfor
p3707
aVforbid
p3708
aVforce
p3709
aVforced
p3710
aVforces
p3711
aVforcing
p3712
aVforeign
p3713
aVforesee
p3714
aVforest
p3715
aVforever
p3716
aVforevermore
p3717
aVforeverthese
p3718
aVforget
p3719
aVforgets
p3720
aVforgive
p3721
aVforgiven
p3722
aVforgiveness
p3723
aVforgot
p3724
aVforgotten
p3725
aVforks
p3726
aVform
p3727
aVforms
p3728
aVforth
p3729
aVfortune
p3730
aVfortyfour
p3731
aVforward
p3732
aVforwards
p3733
aVfought
p3734
aVfound
p3735
aVfoundations
p3736
aVfountain
p3737
aVfountains
p3738
aVfour
p3739
aVfourteen
p3740
aVfoxes
p3741
aVfoyer
p3742
aVfractured
p3743
aVfragile
p3744
aVfragrant
p3745
aVfraid
p3746
aVframe
p3747
aVframes
p3748
aVfrantic
p3749
aVfray
p3750
aVfreak
p3751
aVfreckle
p3752
aVfreckles
p3753
aVfree
p3754
aVfreedom
p3755
aVfreely
p3756
aVfreeway
p3757
aVfreeze
p3758
aVfreezing
p3759
aVfresh
p3760
aVfreshman
p3761
aVfreuen
p3762
aVfriction
p3763
aVfriend
p3764
aVfriendly
p3765
aVfriends
p3766
aVfrightened
p3767
aVfro
p3768
aVfroh
p3769
aVfrom
p3770
aVfront
p3771
aVfrown
p3772
aVfrowning
p3773
aVfroze
p3774
aVfrozen
p3775
aVfruit
p3776
aVfrustrated
p3777
aVfrustrating
p3778
aVfrustration
p3779
aVfrying
p3780
aVfuck
p3781
aVfuckin
p3782
aVfucking
p3783
aVfudge
p3784
aVfugitive
p3785
aVfugitives
p3786
aVfull
p3787
aVfullon
p3788
aVfumbling
p3789
aVfun
p3790
aVfunds
p3791
aVfunky
p3792
aVfunny
p3793
aVfurniture
p3794
aVfurther
p3795
aVfuse
p3796
aVfuss
p3797
aVfusses
p3798
aVfussing
p3799
aVfuture
p3800
aVfutures
p3801
aVgain
p3802
aVgal
p3803
aVgalaxy
p3804
aVgallagher
p3805
aVgallery
p3806
aVgame
p3807
aVgames
p3808
aVgang
p3809
aVgangsta
p3810
aVgap
p3811
aVgar
p3812
aVgarden
p3813
aVgardens
p3814
aVgarters
p3815
aVgas
p3816
aVgate
p3817
aVgathers
p3818
aVgave
p3819
aVgay
p3820
aVgaze
p3821
aVgazing
p3822
aVgear
p3823
aVgehen
p3824
aVgeneration
p3825
aVgent
p3826
aVgently
p3827
aVgesehen
p3828
aVgestures
p3829
aVget
p3830
aVgetan
p3831
aVgetaway
p3832
aVgets
p3833
aVgettin
p3834
aVgetting
p3835
aVghost
p3836
aVghosts
p3837
aVgib
p3838
aVgilly
p3839
aVgimme
p3840
aVgin
p3841
aVginger
p3842
aVgirl
p3843
aVgirlfriend
p3844
aVgirlfriends
p3845
aVgirls
p3846
aVgive
p3847
aVgiven
p3848
aVgives
p3849
aVgivin
p3850
aVgiving
p3851
aVgjoob
p3852
aVglad
p3853
aVgladly
p3854
aVgladness
p3855
aVglance
p3856
aVglass
p3857
aVglasses
p3858
aVglaubst
p3859
aVglcklich
p3860
aVgleamin
p3861
aVglide
p3862
aVglimmering
p3863
aVglimpse
p3864
aVglisten
p3865
aVglitter
p3866
aVgloat
p3867
aVglobe
p3868
aVglory
p3869
aVgloss
p3870
aVglove
p3871
aVglow
p3872
aVglowing
p3873
aVgo
p3874
aVgod
p3875
aVgoddamn
p3876
aVgoes
p3877
aVgogetter
p3878
aVgoin
p3879
aVgoing
p3880
aVgold
p3881
aVgolden
p3882
aVgon
p3883
aVgone
p3884
aVgonna
p3885
aVgoo
p3886
aVgood
p3887
aVgoodbye
p3888
aVgoodbyes
p3889
aVgoodlooking
p3890
aVgoodness
p3891
aVgoodnight
p3892
aVgoosepimples
p3893
aVgot
p3894
aVgotta
p3895
aVgotten
p3896
aVgovernment
p3897
aVgown
p3898
aVgowns
p3899
aVgrab
p3900
aVgrabbed
p3901
aVgrabs
p3902
aVgrace
p3903
aVgraces
p3904
aVgrade
p3905
aVgraffiti
p3906
aVgrandsons
p3907
aVgranted
p3908
aVgrape
p3909
aVgrass
p3910
aVgrateful
p3911
aVgrave
p3912
aVgravity
p3913
aVgravitys
p3914
aVgray
p3915
aVgreat
p3916
aVgreater
p3917
aVgreatest
p3918
aVgreed
p3919
aVgreen
p3920
aVgreens
p3921
aVgreet
p3922
aVgreetings
p3923
aVgrew
p3924
aVgrey
p3925
aVgrill
p3926
aVgrin
p3927
aVgrinning
p3928
aVgrip
p3929
aVgroceries
p3930
aVgroove
p3931
aVgroovin
p3932
aVgrooving
p3933
aVground
p3934
aVgrounded
p3935
aVgroup
p3936
aVgrouping
p3937
aVgrow
p3938
aVgrowin
p3939
aVgrowing
p3940
aVgrown
p3941
aVgrows
p3942
aVgrumbles
p3943
aVgrumbling
p3944
aVguaranteed
p3945
aVguard
p3946
aVguarded
p3947
aVguess
p3948
aVguessed
p3949
aVguessing
p3950
aVguest
p3951
aVguide
p3952
aVguidebook
p3953
aVguilty
p3954
aVguitar
p3955
aVgum
p3956
aVgumboot
p3957
aVgun
p3958
aVgunna
p3959
aVgunny
p3960
aVguns
p3961
aVgurus
p3962
aVguts
p3963
aVguy
p3964
aVguys
p3965
aVgym
p3966
aVgypsy
p3967
aVha
p3968
aVhab
p3969
aVhabit
p3970
aVhad
p3971
aVhadnt
p3972
aVhah
p3973
aVhair
p3974
aVhaired
p3975
aVhairy
p3976
aVhalf
p3977
aVhalfway
p3978
aVhall
p3979
aVhallelujah
p3980
aVhallway
p3981
aVhallways
p3982
aVhalo
p3983
aVhalos
p3984
aVhalt
p3985
aVhalves
p3986
aVhammer
p3987
aVhammered
p3988
aVhand
p3989
aVhanded
p3990
aVhanding
p3991
aVhandkerchief
p3992
aVhandle
p3993
aVhandlebars
p3994
aVhandled
p3995
aVhands
p3996
aVhandshake
p3997
aVhandsome
p3998
aVhandwritten
p3999
aVhandy
p4000
aVhang
p4001
aVhangin
p4002
aVhanging
p4003
aVhangs
p4004
aVhappen
p4005
aVhappened
p4006
aVhappening
p4007
aVhappens
p4008
aVhappiness
p4009
aVhappy
p4010
aVharbor
p4011
aVhard
p4012
aVhardcore
p4013
aVharder
p4014
aVhardest
p4015
aVhardly
p4016
aVharm
p4017
aVharmless
p4018
aVharmony
p4019
aVharold
p4020
aVhas
p4021
aVhashtag
p4022
aVhasnt
p4023
aVhast
p4024
aVhastiness
p4025
aVhat
p4026
aVhate
p4027
aVhated
p4028
aVhaters
p4029
aVhates
p4030
aVhating
p4031
aVhaunt
p4032
aVhaunted
p4033
aVhave
p4034
aVhavent
p4035
aVhaving
p4036
aVhaze
p4037
aVhe
p4038
aVhead
p4039
aVheadache
p4040
aVheaded
p4041
aVheading
p4042
aVheadlights
p4043
aVheadlong
p4044
aVheadphones
p4045
aVheads
p4046
aVheal
p4047
aVhealing
p4048
aVhealth
p4049
aVhear
p4050
aVheard
p4051
aVhears
p4052
aVheart
p4053
aVheartache
p4054
aVheartbeat
p4055
aVheartbreak
p4056
aVheartbreaks
p4057
aVhearted
p4058
aVheartedly
p4059
aVhearts
p4060
aVheat
p4061
aVheaven
p4062
aVheavenly
p4063
aVheavens
p4064
aVheavily
p4065
aVheaviness
p4066
aVheavy
p4067
aVheavyhearted
p4068
aVheba
p4069
aVhed
p4070
aVhee
p4071
aVheel
p4072
aVheeled
p4073
aVheels
p4074
aVheh
p4075
aVheist
p4076
aVheld
p4077
aVhell
p4078
aVhella
p4079
aVhello
p4080
aVhelloa
p4081
aVhellos
p4082
aVhelmet
p4083
aVhelp
p4084
aVhelped
p4085
aVhelping
p4086
aVhelpless
p4087
aVhelter
p4088
aVher
p4089
aVhere
p4090
aVheres
p4091
aVhero
p4092
aVhers
p4093
aVherself
p4094
aVhes
p4095
aVhesitate
p4096
aVhesitation
p4097
aVhey
p4098
aVhgher
p4099
aVhi
p4100
aVhid
p4101
aVhidden
p4102
aVhide
p4103
aVhideaway
p4104
aVhides
p4105
aVhiding
p4106
aVhigh
p4107
aVhigher
p4108
aVhighest
p4109
aVhighlight
p4110
aVhighs
p4111
aVhightop
p4112
aVhighway
p4113
aVhill
p4114
aVhillbilly
p4115
aVhills
p4116
aVhilltop
p4117
aVhilt
p4118
aVhim
p4119
aVhimself
p4120
aVhindsight
p4121
aVhip
p4122
aVhippie
p4123
aVhippy
p4124
aVhips
p4125
aVhipsters
p4126
aVhis
p4127
aVhistory
p4128
aVhit
p4129
aVhitchhiked
p4130
aVhits
p4131
aVhm
p4132
aVhmm
p4133
aVho
p4134
aVhobby
p4135
aVhobnail
p4136
aVhoe
p4137
aVhog
p4138
aVhogshead
p4139
aVhoho
p4140
aVhold
p4141
aVholdin
p4142
aVholding
p4143
aVholds
p4144
aVhole
p4145
aVholes
p4146
aVholiday
p4147
aVhollow
p4148
aVhollowest
p4149
aVholy
p4150
aVhome
p4151
aVhomedrops
p4152
aVhomeless
p4153
aVhomes
p4154
aVhometown
p4155
aVhomeward
p4156
aVhoming
p4157
aVhonest
p4158
aVhonestly
p4159
aVhonesty
p4160
aVhoney
p4161
aVhoneysuckle
p4162
aVhoo
p4163
aVhood
p4164
aVhook
p4165
aVhooked
p4166
aVhoop
p4167
aVhoops
p4168
aVhop
p4169
aVhope
p4170
aVhoped
p4171
aVhopeful
p4172
aVhopelessly
p4173
aVhopes
p4174
aVhoping
p4175
aVhorizon
p4176
aVhorse
p4177
aVhorses
p4178
aVhospital
p4179
aVhosting
p4180
aVhosts
p4181
aVhot
p4182
aVhotter
p4183
aVhour
p4184
aVhourglass
p4185
aVhours
p4186
aVhouse
p4187
aVhouses
p4188
aVhovering
p4189
aVhow
p4190
aVhowever
p4191
aVhows
p4192
aVhu
p4193
aVhug
p4194
aVhugs
p4195
aVhuh
p4196
aVhula
p4197
aVhum
p4198
aVhuman
p4199
aVhumble
p4200
aVhumiliation
p4201
aVhumor
p4202
aVhundred
p4203
aVhung
p4204
aVhunger
p4205
aVhungry
p4206
aVhunt
p4207
aVhunters
p4208
aVhunting
p4209
aVhurrican
p4210
aVhurried
p4211
aVhurry
p4212
aVhurt
p4213
aVhurtin
p4214
aVhurting
p4215
aVhurts
p4216
aVhusband
p4217
aVhyp
p4218
aVhypnotised
p4219
aVhypnotized
p4220
aVi
aVice
p4221
aVich
p4222
aVid
p4223
aVidea
p4224
aVideas
p4225
aVidiot
p4226
aVidiots
p4227
aVif
p4228
aVignite
p4229
aVignited
p4230
aVignorance
p4231
aVignore
p4232
aVignored
p4233
aVihr
p4234
aVill
p4235
aVilluminates
p4236
aVillumination
p4237
aVillusion
p4238
aVim
p4239
aVimages
p4240
aVimagination
p4241
aVimagine
p4242
aVimagined
p4243
aVimitate
p4244
aVimmgrants
p4245
aVimperfect
p4246
aVimportant
p4247
aVimpossible
p4248
aVimpress
p4249
aVimpressed
p4250
aVimpression
p4251
aVimprisoned
p4252
aVimpulsive
p4253
aVin
p4254
aVinch
p4255
aVinclined
p4256
aVincomplete
p4257
aVinconvenient
p4258
aVincredible
p4259
aVincredibly
p4260
aVindeed
p4261
aVindependence
p4262
aVindian
p4263
aVindicate
p4264
aVindie
p4265
aVinevitable
p4266
aVinfant
p4267
aVinfatuation
p4268
aVinfinite
p4269
aVinformation
p4270
aVinner
p4271
aVinnocence
p4272
aVinnocent
p4273
aVinquire
p4274
aVinsane
p4275
aVinsect
p4276
aVinsecure
p4277
aVinside
p4278
aVinsides
p4279
aVinsincerity
p4280
aVinspiration
p4281
aVinspirations
p4282
aVinstall
p4283
aVinstantly
p4284
aVinstead
p4285
aVinstigator
p4286
aVinstitution
p4287
aVinsufficient
p4288
aVinsurance
p4289
aVintegrations
p4290
aVintend
p4291
aVintention
p4292
aVintentions
p4293
aVinterruptions
p4294
aVinterstate
p4295
aVintertwined
p4296
aVinto
p4297
aVintoxicating
p4298
aVintroduce
p4299
aVintuition
p4300
aVinvade
p4301
aVinvaded
p4302
aVinvent
p4303
aVinventors
p4304
aVinverted
p4305
aVinvestigation
p4306
aVinvisible
p4307
aVinvitation
p4308
aVinvitations
p4309
aVinvites
p4310
aVinviting
p4311
aVinvolved
p4312
aViron
p4313
aVirrational
p4314
aVirreplacable
p4315
aVirreplaceable
p4316
aVirresponsibly
p4317
aVis
p4318
aVisland
p4319
aVislandand
p4320
aVism
p4321
aVisnt
p4322
aVisolation
p4323
aVit
p4324
aVitch
p4325
aVitd
p4326
aVitll
p4327
aVits
p4328
aVitself
p4329
aVityeah
p4330
aVive
p4331
aVja
p4332
aVjackboots
p4333
aVjacket
p4334
aVjagged
p4335
aVjailer
p4336
aVjailhouse
p4337
aVjam
p4338
aVjamboree
p4339
aVjammed
p4340
aVjar
p4341
aVjars
p4342
aVjaw
p4343
aVjaws
p4344
aVjazz
p4345
aVjealous
p4346
aVjealousy
p4347
aVjean
p4348
aVjeans
p4349
aVjets
p4350
aVjetzt
p4351
aVjewellers
p4352
aVjewelry
p4353
aVjigsaw
p4354
aVjingle
p4355
aVjob
p4356
aVjobber
p4357
aVjockey
p4358
aVjoin
p4359
aVjoint
p4360
aVjoke
p4361
aVjoker
p4362
aVjokey
p4363
aVjoo
p4364
aVjoy
p4365
aVjubilee
p4366
aVjudge
p4367
aVjug
p4368
aVjuice
p4369
aVjukebox
p4370
aVjukeboxs
p4371
aVjump
p4372
aVjumped
p4373
aVjumpin
p4374
aVjumping
p4375
aVjumps
p4376
aVjungle
p4377
aVjunior
p4378
aVjunk
p4379
aVjurys
p4380
aVjust
p4381
aVkaleidoscope
p4382
aVkann
p4383
aVkarate
p4384
aVkarma
p4385
aVkeep
p4386
aVkeeper
p4387
aVkeeping
p4388
aVkeeps
p4389
aVkept
p4390
aVkey
p4391
aVkeyed
p4392
aVkeys
p4393
aVkick
p4394
aVkicking
p4395
aVkid
p4396
aVkidding
p4397
aVkids
p4398
aVkill
p4399
aVkilled
p4400
aVkiller
p4401
aVkillerdiller
p4402
aVkilling
p4403
aVkills
p4404
aVkilt
p4405
aVkin
p4406
aVkind
p4407
aVkinda
p4408
aVkindness
p4409
aVkinds
p4410
aVking
p4411
aVkingdom
p4412
aVkings
p4413
aVkiss
p4414
aVkissed
p4415
aVkisses
p4416
aVkissin
p4417
aVkissing
p4418
aVkitchen
p4419
aVkitten
p4420
aVknee
p4421
aVkneel
p4422
aVknees
p4423
aVknelt
p4424
aVknew
p4425
aVknickers
p4426
aVknife
p4427
aVknit
p4428
aVknitted
p4429
aVknives
p4430
aVknock
p4431
aVknocked
p4432
aVknocking
p4433
aVknocks
p4434
aVknow
p4435
aVknowing
p4436
aVknown
p4437
aVknows
p4438
aVkomm
p4439
aVks
p4440
aVla
p4441
aVlace
p4442
aVlack
p4443
aVlacking
p4444
aVlad
p4445
aVladder
p4446
aVlady
p4447
aVladykiller
p4448
aVlagoon
p4449
aVlaid
p4450
aVlake
p4451
aVlalalalala
p4452
aVlalalalalala
p4453
aVlamb
p4454
aVlambs
p4455
aVlame
p4456
aVland
p4457
aVlanded
p4458
aVlane
p4459
aVlanguage
p4460
aVlank
p4461
aVlark
p4462
aVlast
p4463
aVlasted
p4464
aVlasts
p4465
aVlatches
p4466
aVlate
p4467
aVlately
p4468
aVlater
p4469
aVlatest
p4470
aVlatte
p4471
aVlaugh
p4472
aVlaughed
p4473
aVlaughin
p4474
aVlaughing
p4475
aVlaughs
p4476
aVlaughter
p4477
aVlaundromat
p4478
aVlay
p4479
aVlazy
p4480
aVlead
p4481
aVleader
p4482
aVleaders
p4483
aVleading
p4484
aVleads
p4485
aVlean
p4486
aVleaned
p4487
aVlearn
p4488
aVlearned
p4489
aVlearning
p4490
aVlearns
p4491
aVleast
p4492
aVleave
p4493
aVleaver
p4494
aVleaves
p4495
aVleaving
p4496
aVled
p4497
aVleft
p4498
aVlegend
p4499
aVlegends
p4500
aVlegs
p4501
aVleisure
p4502
aVlemonade
p4503
aVlend
p4504
aVlends
p4505
aVlengths
p4506
aVlens
p4507
aVles
p4508
aVless
p4509
aVlesson
p4510
aVlet
p4511
aVlethal
p4512
aVlets
p4513
aVletter
p4514
aVletters
p4515
aVletting
p4516
aVliar
p4517
aVliars
p4518
aVlicked
p4519
aVlickin
p4520
aVlicking
p4521
aVlicks
p4522
aVlie
p4523
aVliebt
p4524
aVlied
p4525
aVlies
p4526
aVlife
p4527
aVlifeless
p4528
aVlifes
p4529
aVlifetime
p4530
aVlift
p4531
aVlifted
p4532
aVlifting
p4533
aVlight
p4534
aVlighten
p4535
aVlighter
p4536
aVlighting
p4537
aVlightning
p4538
aVlights
p4539
aVlike
p4540
aVliked
p4541
aVlikes
p4542
aVlimit
p4543
aVlimitation
p4544
aVlimousine
p4545
aVline
p4546
aVlines
p4547
aVlinger
p4548
aVlingering
p4549
aVlingers
p4550
aVlining
p4551
aVlink
p4552
aVlion
p4553
aVlions
p4554
aVlip
p4555
aVlips
p4556
aVlipstick
p4557
aVliquid
p4558
aVliquor
p4559
aVlist
p4560
aVlisten
p4561
aVlistened
p4562
aVlistening
p4563
aVlistens
p4564
aVlit
p4565
aVlittle
p4566
aVlive
p4567
aVlived
p4568
aVlives
p4569
aVlivin
p4570
aVliving
p4571
aVlizard
p4572
aVload
p4573
aVloaded
p4574
aVlocal
p4575
aVlocation
p4576
aVlock
p4577
aVlocked
p4578
aVlocket
p4579
aVlog
p4580
aVloneliest
p4581
aVloneliness
p4582
aVlonely
p4583
aVloner
p4584
aVlonesome
p4585
aVlong
p4586
aVlonger
p4587
aVlonging
p4588
aVlonliness
p4589
aVlook
p4590
aVlooked
p4591
aVlookin
p4592
aVlooking
p4593
aVlooks
p4594
aVloose
p4595
aVlord
p4596
aVlorry
p4597
aVlose
p4598
aVloser
p4599
aVloses
p4600
aVlosing
p4601
aVloss
p4602
aVlost
p4603
aVlot
p4604
aVlots
p4605
aVloud
p4606
aVlouder
p4607
aVloudest
p4608
aVloudly
p4609
aVloungin
p4610
aVlove
p4611
aVlovebirds
p4612
aVloved
p4613
aVlovely
p4614
aVlover
p4615
aVlovers
p4616
aVloves
p4617
aVlovestruck
p4618
aVlovin
p4619
aVloving
p4620
aVlow
p4621
aVlower
p4622
aVlowest
p4623
aVlows
p4624
aVluck
p4625
aVlucky
p4626
aVlullaby
p4627
aVlulling
p4628
aVlump
p4629
aVlumpy
p4630
aVlunchbox
p4631
aVlungs
p4632
aVlust
p4633
aVlyin
p4634
aVlying
p4635
aVlyrics
p4636
aVm
aVma
p4637
aVmaam
p4638
aVmac
p4639
aVmachine
p4640
aVmachines
p4641
aVmad
p4642
aVmade
p4643
aVmadly
p4644
aVmadness
p4645
aVmagazine
p4646
aVmagazines
p4647
aVmagic
p4648
aVmagical
p4649
aVmagicians
p4650
aVmagics
p4651
aVmaid
p4652
aVmail
p4653
aVmailman
p4654
aVmaintains
p4655
aVmajestys
p4656
aVmajoring
p4657
aVmake
p4658
aVmakes
p4659
aVmakeup
p4660
aVmakin
p4661
aVmaking
p4662
aVmama
p4663
aVmamas
p4664
aVmambo
p4665
aVmammie
p4666
aVman
p4667
aVmanage
p4668
aVmanagement
p4669
aVmandolin
p4670
aVmans
p4671
aVmantel
p4672
aVmany
p4673
aVmap
p4674
aVmarch
p4675
aVmarching
p4676
aVmark
p4677
aVmarker
p4678
aVmarket
p4679
aVmarketplace
p4680
aVmarks
p4681
aVmarmalade
p4682
aVmarried
p4683
aVmarry
p4684
aVmarryin
p4685
aVmars
p4686
aVmarshmallow
p4687
aVmartin
p4688
aVmarvellous
p4689
aVmarvelous
p4690
aVmascara
p4691
aVmask
p4692
aVmast
p4693
aVmaster
p4694
aVmasterpiece
p4695
aVmasturbation
p4696
aVmatch
p4697
aVmatchbox
p4698
aVmatches
p4699
aVmate
p4700
aVmatter
p4701
aVmattered
p4702
aVmatters
p4703
aVmattress
p4704
aVmaturity
p4705
aVmay
p4706
aVmaybe
p4707
aVmbop
p4708
aVme
p4709
aVmeadows
p4710
aVmeal
p4711
aVmean
p4712
aVmeander
p4713
aVmeaner
p4714
aVmeaning
p4715
aVmeaningless
p4716
aVmeanness
p4717
aVmeans
p4718
aVmeant
p4719
aVmeanwhile
p4720
aVmeasure
p4721
aVmeasures
p4722
aVmedicine
p4723
aVmedont
p4724
aVmeet
p4725
aVmeeting
p4726
aVmelody
p4727
aVmelt
p4728
aVmelted
p4729
aVmelting
p4730
aVmemories
p4731
aVmemorize
p4732
aVmemorized
p4733
aVmemory
p4734
aVmen
p4735
aVmend
p4736
aVmending
p4737
aVmental
p4738
aVmention
p4739
aVmentioning
p4740
aVmentions
p4741
aVmercy
p4742
aVmerry
p4743
aVmesmerized
p4744
aVmess
p4745
aVmessage
p4746
aVmessed
p4747
aVmessing
p4748
aVmessy
p4749
aVmet
p4750
aVmetal
p4751
aVmeter
p4752
aVmi
p4753
aVmic
p4754
aVmich
p4755
aVmicrophone
p4756
aVmiddle
p4757
aVmidnight
p4758
aVmidnights
p4759
aVmight
p4760
aVmighty
p4761
aVmild
p4762
aVmile
p4763
aVmiles
p4764
aVmilitary
p4765
aVmilk
p4766
aVmilks
p4767
aVmill
p4768
aVmillion
p4769
aVmillions
p4770
aVmind
p4771
aVmindedly
p4772
aVmindless
p4773
aVminds
p4774
aVmine
p4775
aVminute
p4776
aVminutes
p4777
aVmir
p4778
aVmiracle
p4779
aVmiracles
p4780
aVmirror
p4781
aVmirrors
p4782
aVmisbehaving
p4783
aVmiserable
p4784
aVmisery
p4785
aVmisfortune
p4786
aVmisled
p4787
aVmisplace
p4788
aVmisread
p4789
aVmiss
p4790
aVmissed
p4791
aVmisses
p4792
aVmissing
p4793
aVmission
p4794
aVmissionaries
p4795
aVmist
p4796
aVmistake
p4797
aVmistaken
p4798
aVmistakes
p4799
aVmistletoe
p4800
aVmisunderstood
p4801
aVmisuse
p4802
aVmit
p4803
aVmixed
p4804
aVmixes
p4805
aVmm
p4806
aVmmm
p4807
aVmmmmmmdididi
p4808
aVmmmmmmmmmmm
p4809
aVmo
p4810
aVmoan
p4811
aVmodern
p4812
aVmold
p4813
aVmolecules
p4814
aVmom
p4815
aVmoment
p4816
aVmomentary
p4817
aVmoments
p4818
aVmommas
p4819
aVmommy
p4820
aVmoms
p4821
aVmoney
p4822
aVmoneys
p4823
aVmonkey
p4824
aVmonkeys
p4825
aVmonologue
p4826
aVmonotony
p4827
aVmonster
p4828
aVmonsters
p4829
aVmontelimar
p4830
aVmonth
p4831
aVmonths
p4832
aVmood
p4833
aVmoon
p4834
aVmoonlight
p4835
aVmore
p4836
aVmormon
p4837
aVmornin
p4838
aVmorning
p4839
aVmornings
p4840
aVmortified
p4841
aVmost
p4842
aVmother
p4843
aVmotherfucker
p4844
aVmothers
p4845
aVmotion
p4846
aVmotivator
p4847
aVmotorcar
p4848
aVmots
p4849
aVmountain
p4850
aVmountains
p4851
aVmourn
p4852
aVmouth
p4853
aVmove
p4854
aVmoved
p4855
aVmovement
p4856
aVmovements
p4857
aVmoves
p4858
aVmovie
p4859
aVmovies
p4860
aVmovin
p4861
aVmoving
p4862
aVmuch
p4863
aVmucho
p4864
aVmud
p4865
aVmuddy
p4866
aVmulticolored
p4867
aVmummas
p4868
aVmummy
p4869
aVmummys
p4870
aVmurder
p4871
aVmuscle
p4872
aVmusic
p4873
aVmusical
p4874
aVmusics
p4875
aVmusst
p4876
aVmust
p4877
aVmustnt
p4878
aVmustve
p4879
aVmutual
p4880
aVmy
p4881
aVmyself
p4882
aVmystery
p4883
aVmystifies
p4884
aVn
aVna
p4885
aVnaah
p4886
aVnah
p4887
aVnails
p4888
aVnaive
p4889
aVnaked
p4890
aVname
p4891
aVnamed
p4892
aVnames
p4893
aVnana
p4894
aVnapkin
p4895
aVnasty
p4896
aVnational
p4897
aVnatural
p4898
aVnaturally
p4899
aVnature
p4900
aVnatures
p4901
aVnaughty
p4902
aVnay
p4903
aVnear
p4904
aVnearer
p4905
aVnearly
p4906
aVneat
p4907
aVnecessity
p4908
aVneck
p4909
aVnecklace
p4910
aVneed
p4911
aVneeded
p4912
aVneeding
p4913
aVneedle
p4914
aVneeds
p4915
aVneglected
p4916
aVnegligee
p4917
aVnegotiations
p4918
aVneighborhood
p4919
aVneighbors
p4920
aVneither
p4921
aVneon
p4922
aVnerve
p4923
aVnerves
p4924
aVnervous
p4925
aVnervously
p4926
aVnet
p4927
aVnever
p4928
aVnevermind
p4929
aVnew
p4930
aVnewest
p4931
aVnews
p4932
aVnewspapers
p4933
aVnext
p4934
aVnice
p4935
aVnicest
p4936
aVnicht
p4937
aVnick
p4938
aVnie
p4939
aVnight
p4940
aVnightlight
p4941
aVnightmare
p4942
aVnights
p4943
aVnighttime
p4944
aVnimmst
p4945
aVnine
p4946
aVnines
p4947
aVnineteen
p4948
aVninth
p4949
aVno
p4950
aVnobel
p4951
aVnobody
p4952
aVnobodys
p4953
aVnoch
p4954
aVnod
p4955
aVnoel
p4956
aVnoise
p4957
aVnoises
p4958
aVnonchalant
p4959
aVnone
p4960
aVnoone
p4961
aVnoones
p4962
aVnoose
p4963
aVnor
p4964
aVnormal
p4965
aVnorth
p4966
aVnorthwest
p4967
aVnose
p4968
aVnot
p4969
aVnotch
p4970
aVnote
p4971
aVnotes
p4972
aVnothin
p4973
aVnothing
p4974
aVnothings
p4975
aVnotice
p4976
aVnoticed
p4977
aVnotices
p4978
aVnovel
p4979
aVnovelty
p4980
aVnow
p4981
aVnowhere
p4982
aVnumber
p4983
aVnumbers
p4984
aVnun
p4985
aVnur
p4986
aVnurse
p4987
aVny
p4988
aVo
aVoa
p4989
aVoan
p4990
aVoasis
p4991
aVoath
p4992
aVobjections
p4993
aVoblada
p4994
aVobladi
p4995
aVobrigado
p4996
aVobscene
p4997
aVobsessive
p4998
aVobvious
p4999
aVobviously
p5000
aVoccasion
p5001
aVoccurred
p5002
aVoccurring
p5003
aVoccurs
p5004
aVocean
p5005
aVoceans
p5006
aVoclock
p5007
aVoctopus
p5008
aVof
p5009
aVoff
p5010
aVoffended
p5011
aVoffer
p5012
aVoffered
p5013
aVoffice
p5014
aVoften
p5015
aVoh
p5016
aVohahohah
p5017
aVohh
p5018
aVohhh
p5019
aVohhhh
p5020
aVohoh
p5021
aVohohoh
p5022
aVohohohoh
p5023
aVoil
p5024
aVoink
p5025
aVok
p5026
aVokay
p5027
aVol
p5028
aVold
p5029
aVolden
p5030
aVolder
p5031
aVom
p5032
aVon
p5033
aVonce
p5034
aVone
p5035
aVonehand
p5036
aVonehorse
p5037
aVones
p5038
aVonesided
p5039
aVonetwothreefour
p5040
aVoneway
p5041
aVonion
p5042
aVonly
p5043
aVonto
p5044
aVoo
p5045
aVooh
p5046
aVoohh
p5047
aVoohoo
p5048
aVoohoohoohooh
p5049
aVooo
p5050
aVoooh
p5051
aVooon
p5052
aVooooooh
p5053
aVopaque
p5054
aVopen
p5055
aVopened
p5056
aVopening
p5057
aVopens
p5058
aVoperator
p5059
aVopinion
p5060
aVopportunities
p5061
aVopportunity
p5062
aVoptimism
p5063
aVor
p5064
aVorange
p5065
aVorders
p5066
aVordinary
p5067
aVorgan
p5068
aVorphans
p5069
aVother
p5070
aVothers
p5071
aVought
p5072
aVoughta
p5073
aVour
p5074
aVours
p5075
aVourselves
p5076
aVout
p5077
aVouter
p5078
aVoutline
p5079
aVoutnumbered
p5080
aVoutraged
p5081
aVoutside
p5082
aVoutskirts
p5083
aVoutta
p5084
aVoutterspace
p5085
aVover
p5086
aVovercome
p5087
aVoverdue
p5088
aVoverheats
p5089
aVoverlooks
p5090
aVovernight
p5091
aVoveroh
p5092
aVoverpass
p5093
aVoverrated
p5094
aVoverruled
p5095
aVoverseas
p5096
aVoverthrown
p5097
aVovertime
p5098
aVow
p5099
aVowe
p5100
aVown
p5101
aVowned
p5102
aVoxygen
p5103
aVpaced
p5104
aVpacing
p5105
aVpack
p5106
aVpackaged
p5107
aVpage
p5108
aVpageant
p5109
aVpages
p5110
aVpaid
p5111
aVpain
p5112
aVpainful
p5113
aVpains
p5114
aVpaint
p5115
aVpainted
p5116
aVpainting
p5117
aVpaintings
p5118
aVpair
p5119
aVpalm
p5120
aVpan
p5121
aVpancake
p5122
aVpane
p5123
aVpans
p5124
aVpapa
p5125
aVpaparazzi
p5126
aVpaper
p5127
aVpaperback
p5128
aVpaperboy
p5129
aVpapers
p5130
aVpappie
p5131
aVpara
p5132
aVparadise
p5133
aVparalyzed
p5134
aVparamucho
p5135
aVparaparaparadise
p5136
aVpararazzi
p5137
aVparasol
p5138
aVparents
p5139
aVpark
p5140
aVparked
p5141
aVparking
p5142
aVparlor
p5143
aVparole
p5144
aVpart
p5145
aVparted
p5146
aVparticular
p5147
aVparting
p5148
aVpartner
p5149
aVpartners
p5150
aVparts
p5151
aVparttime
p5152
aVparty
p5153
aVpass
p5154
aVpassed
p5155
aVpassenger
p5156
aVpassengers
p5157
aVpasses
p5158
aVpassing
p5159
aVpassion
p5160
aVpassionate
p5161
aVpassport
p5162
aVpast
p5163
aVpastel
p5164
aVpastry
p5165
aVpataphysical
p5166
aVpatch
p5167
aVpatched
p5168
aVpath
p5169
aVpathetic
p5170
aVpatient
p5171
aVpatiently
p5172
aVpatronize
p5173
aVpaved
p5174
aVpavement
p5175
aVpavements
p5176
aVpay
p5177
aVpaychecks
p5178
aVpaying
p5179
aVpayphone
p5180
aVpeace
p5181
aVpeacefully
p5182
aVpeaches
p5183
aVpeak
p5184
aVpeaked
p5185
aVpeanuts
p5186
aVpeasant
p5187
aVpebbles
p5188
aVpedro
p5189
aVpeep
p5190
aVpen
p5191
aVpenetrate
p5192
aVpenguin
p5193
aVpennies
p5194
aVpenny
p5195
aVpeople
p5196
aVpeoples
p5197
aVper
p5198
aVperfect
p5199
aVperfection
p5200
aVperfectly
p5201
aVperform
p5202
aVperformance
p5203
aVperforms
p5204
aVperfume
p5205
aVpermanent
p5206
aVpersist
p5207
aVperson
p5208
aVperverted
p5209
aVpetrified
p5210
aVphantom
p5211
aVphone
p5212
aVphoning
p5213
aVphoto
p5214
aVphotograph
p5215
aVphotographs
p5216
aVphotos
p5217
aVphysical
p5218
aVpiano
p5219
aVpick
p5220
aVpicked
p5221
aVpicking
p5222
aVpicks
p5223
aVpickup
p5224
aVpicture
p5225
aVpictures
p5226
aVpie
p5227
aVpiece
p5228
aVpieces
p5229
aVpiercing
p5230
aVpies
p5231
aVpiggies
p5232
aVpiggy
p5233
aVpigs
p5234
aVpiled
p5235
aVpiling
p5236
aVpill
p5237
aVpillars
p5238
aVpillow
p5239
aVpilot
p5240
aVpin
p5241
aVpineapple
p5242
aVpirate
p5243
aVpitch
p5244
aVpjs
p5245
aVplace
p5246
aVplaced
p5247
aVplaces
p5248
aVplague
p5249
aVplaid
p5250
aVplain
p5251
aVplainly
p5252
aVplains
p5253
aVplan
p5254
aVplane
p5255
aVplanes
p5256
aVplanet
p5257
aVplanned
p5258
aVplans
p5259
aVplantation
p5260
aVplanted
p5261
aVplastic
p5262
aVplasticine
p5263
aVplate
p5264
aVplatform
p5265
aVplatinum
p5266
aVplatter
p5267
aVplay
p5268
aVplayed
p5269
aVplayer
p5270
aVplayers
p5271
aVplayful
p5272
aVplayground
p5273
aVplayin
p5274
aVplaying
p5275
aVplayroom
p5276
aVplays
p5277
aVplead
p5278
aVpleas
p5279
aVplease
p5280
aVpleased
p5281
aVpleasing
p5282
aVpleasure
p5283
aVplot
p5284
aVpneumonia
p5285
aVpocket
p5286
aVpockets
p5287
aVpoem
p5288
aVpoems
p5289
aVpoet
p5290
aVpoetry
p5291
aVpoint
p5292
aVpointed
p5293
aVpoison
p5294
aVpoker
p5295
aVpoles
p5296
aVpolice
p5297
aVpoliceman
p5298
aVpolicemen
p5299
aVpolicy
p5300
aVpolietly
p5301
aVpolish
p5302
aVpolished
p5303
aVpolitik
p5304
aVpolythene
p5305
aVpond
p5306
aVpony
p5307
aVpool
p5308
aVpoona
p5309
aVpoop
p5310
aVpoor
p5311
aVpop
p5312
aVpoppies
p5313
aVpopular
p5314
aVpopularity
p5315
aVporch
p5316
aVpores
p5317
aVpornographic
p5318
aVport
p5319
aVporters
p5320
aVportrait
p5321
aVposition
p5322
aVpossessions
p5323
aVpossibly
p5324
aVpostcard
p5325
aVpostcards
p5326
aVposts
p5327
aVpotatoe
p5328
aVpots
p5329
aVpounding
p5330
aVpounds
p5331
aVpour
p5332
aVpoured
p5333
aVpourin
p5334
aVpouring
p5335
aVpowders
p5336
aVpowell
p5337
aVpower
p5338
aVpraise
p5339
aVpray
p5340
aVprayed
p5341
aVprayer
p5342
aVpraying
p5343
aVpreacher
p5344
aVprecious
p5345
aVprecisely
p5346
aVprecocious
p5347
aVpredict
p5348
aVprefer
p5349
aVprep
p5350
aVpreparation
p5351
aVprepared
p5352
aVpresent
p5353
aVpresents
p5354
aVpress
p5355
aVpressed
p5356
aVpressure
p5357
aVpretend
p5358
aVpretended
p5359
aVpretenders
p5360
aVpretending
p5361
aVpretendings
p5362
aVprettiest
p5363
aVpretty
p5364
aVpreviously
p5365
aVprey
p5366
aVpreying
p5367
aVprice
p5368
aVpriceless
p5369
aVpride
p5370
aVpriestess
p5371
aVprince
p5372
aVprincess
p5373
aVprincesses
p5374
aVprinciples
p5375
aVprison
p5376
aVprisoner
p5377
aVprize
p5378
aVprized
p5379
aVpro
p5380
aVprobably
p5381
aVproblem
p5382
aVproblems
p5383
aVproceeded
p5384
aVprocess
p5385
aVprocession
p5386
aVproduction
p5387
aVprofound
p5388
aVprogrammed
p5389
aVprogress
p5390
aVprolly
p5391
aVprom
p5392
aVpromise
p5393
aVpromises
p5394
aVpromising
p5395
aVproof
p5396
aVproperly
p5397
aVproposition
p5398
aVprospects
p5399
aVprotect
p5400
aVproud
p5401
aVproudly
p5402
aVprove
p5403
aVproved
p5404
aVprovide
p5405
aVproving
p5406
aVprovocative
p5407
aVpsycho
p5408
aVpublic
p5409
aVpuddles
p5410
aVpull
p5411
aVpulled
p5412
aVpullin
p5413
aVpulling
p5414
aVpulls
p5415
aVpulses
p5416
aVpum
p5417
aVpumpkin
p5418
aVpunch
p5419
aVpunched
p5420
aVpunches
p5421
aVpunching
p5422
aVpunish
p5423
aVpuppet
p5424
aVpuppy
p5425
aVpure
p5426
aVpurple
p5427
aVpurse
p5428
aVpush
p5429
aVpushed
p5430
aVpushing
p5431
aVput
p5432
aVputs
p5433
aVputting
p5434
aVpuzzle
p5435
aVpuzzles
p5436
aVpuzzling
p5437
aVquake
p5438
aVquarter
p5439
aVque
p5440
aVqueen
p5441
aVqueens
p5442
aVquestion
p5443
aVquestions
p5444
aVqueue
p5445
aVqui
p5446
aVquick
p5447
aVquickly
p5448
aVquicksand
p5449
aVquiet
p5450
aVquirky
p5451
aVquit
p5452
aVquite
p5453
aVquizzical
p5454
aVrabbit
p5455
aVrace
p5456
aVraces
p5457
aVracing
p5458
aVracy
p5459
aVradiate
p5460
aVradio
p5461
aVrag
p5462
aVrage
p5463
aVraging
p5464
aVrailroad
p5465
aVrain
p5466
aVrainbows
p5467
aVraincoats
p5468
aVraindrop
p5469
aVraindrops
p5470
aVrained
p5471
aVraining
p5472
aVrains
p5473
aVrainstorm
p5474
aVrainy
p5475
aVraise
p5476
aVraised
p5477
aVraising
p5478
aVramblin
p5479
aVran
p5480
aVranges
p5481
aVransom
p5482
aVranting
p5483
aVrap
p5484
aVrapper
p5485
aVrappin
p5486
aVrapping
p5487
aVrare
p5488
aVrate
p5489
aVrather
p5490
aVrattle
p5491
aVraves
p5492
aVraw
p5493
aVray
p5494
aVreach
p5495
aVreaching
p5496
aVreaction
p5497
aVread
p5498
aVreading
p5499
aVready
p5500
aVreal
p5501
aVrealign
p5502
aVrealise
p5503
aVrealised
p5504
aVrealities
p5505
aVreality
p5506
aVrealize
p5507
aVrealized
p5508
aVrealizing
p5509
aVreally
p5510
aVreap
p5511
aVrear
p5512
aVrearranged
p5513
aVreason
p5514
aVreasons
p5515
aVrebel
p5516
aVrecall
p5517
aVreceive
p5518
aVreckless
p5519
aVrecognize
p5520
aVrecord
p5521
aVrecorder
p5522
aVrecords
p5523
aVrecover
p5524
aVrecreate
p5525
aVrectify
p5526
aVrecycled
p5527
aVred
p5528
aVredeeming
p5529
aVredhead
p5530
aVredneck
p5531
aVreeds
p5532
aVreel
p5533
aVreelin
p5534
aVreelings
p5535
aVreflect
p5536
aVreflection
p5537
aVreflects
p5538
aVrefrain
p5539
aVrefrigerator
p5540
aVrefuge
p5541
aVrefuse
p5542
aVrefused
p5543
aVregret
p5544
aVregrets
p5545
aVregulation
p5546
aVrehab
p5547
aVrehearsal
p5548
aVreign
p5549
aVreins
p5550
aVreject
p5551
aVrelate
p5552
aVrelationship
p5553
aVrelationships
p5554
aVrelax
p5555
aVrelease
p5556
aVrelentless
p5557
aVreligion
p5558
aVreligious
p5559
aVreluctant
p5560
aVrely
p5561
aVremain
p5562
aVremained
p5563
aVremains
p5564
aVremarks
p5565
aVremedies
p5566
aVremedy
p5567
aVremember
p5568
aVremembered
p5569
aVremembers
p5570
aVremind
p5571
aVreminded
p5572
aVreminding
p5573
aVreminds
p5574
aVreminisce
p5575
aVreminiscing
p5576
aVremorse
p5577
aVremote
p5578
aVrent
p5579
aVrepeat
p5580
aVrepeating
p5581
aVreplace
p5582
aVreply
p5583
aVrepressed
p5584
aVreprimand
p5585
aVreputation
p5586
aVrequest
p5587
aVrequires
p5588
aVrescue
p5589
aVresemblance
p5590
aVreservation
p5591
aVreserve
p5592
aVresign
p5593
aVresist
p5594
aVrespect
p5595
aVrespects
p5596
aVresponsibility
p5597
aVrest
p5598
aVrestless
p5599
aVrestrictions
p5600
aVresults
p5601
aVretire
p5602
aVreturn
p5603
aVreturned
p5604
aVreturning
p5605
aVreturns
p5606
aVrevenge
p5607
aVreverse
p5608
aVreview
p5609
aVrevival
p5610
aVrevolution
p5611
aVrevolved
p5612
aVrevoution
p5613
aVrhyme
p5614
aVrhymes
p5615
aVrhythm
p5616
aVribbon
p5617
aVribbons
p5618
aVrice
p5619
aVrich
p5620
aVrid
p5621
aVriddles
p5622
aVride
p5623
aVrides
p5624
aVridge
p5625
aVridin
p5626
aVriding
p5627
aVrifles
p5628
aVright
p5629
aVrights
p5630
aVring
p5631
aVringing
p5632
aVrings
p5633
aVriots
p5634
aVrip
p5635
aVripped
p5636
aVripping
p5637
aVripples
p5638
aVrips
p5639
aVriptide
p5640
aVrise
p5641
aVrisin
p5642
aVrising
p5643
aVrisk
p5644
aVrisked
p5645
aVrival
p5646
aVriver
p5647
aVrivers
p5648
aVriverside
p5649
aVroad
p5650
aVroads
p5651
aVroam
p5652
aVrob
p5653
aVrobber
p5654
aVrobbin
p5655
aVrobbing
p5656
aVrobots
p5657
aVrock
p5658
aVrocked
p5659
aVrocket
p5660
aVrocketship
p5661
aVrockin
p5662
aVrocking
p5663
aVrocks
p5664
aVrocky
p5665
aVrode
p5666
aVrole
p5667
aVroll
p5668
aVrolled
p5669
aVroller
p5670
aVrollin
p5671
aVrolling
p5672
aVromance
p5673
aVromantic
p5674
aVromantics
p5675
aVroof
p5676
aVrooftop
p5677
aVrooftops
p5678
aVroom
p5679
aVrooted
p5680
aVroots
p5681
aVrope
p5682
aVropes
p5683
aVrose
p5684
aVroses
p5685
aVrosy
p5686
aVrotten
p5687
aVrough
p5688
aVround
p5689
aVroundabout
p5690
aVroutine
p5691
aVrow
p5692
aVrub
p5693
aVrubbed
p5694
aVrubble
p5695
aVrude
p5696
aVrudely
p5697
aVrug
p5698
aVruin
p5699
aVruined
p5700
aVruins
p5701
aVrule
p5702
aVruled
p5703
aVrules
p5704
aVrumor
p5705
aVrumors
p5706
aVrumour
p5707
aVrun
p5708
aVrunaround
p5709
aVrunaway
p5710
aVrunnin
p5711
aVrunning
p5712
aVruns
p5713
aVrush
p5714
aVrushes
p5715
aVrushing
p5716
aVrust
p5717
aVrusted
p5718
aVrusting
p5719
aVrusty
p5720
aVruthless
p5721
aVsable
p5722
aVsabotage
p5723
aVsack
p5724
aVsacrificed
p5725
aVsad
p5726
aVsaddest
p5727
aVsadly
p5728
aVsadness
p5729
aVsafe
p5730
aVsafety
p5731
aVsaid
p5732
aVsail
p5733
aVsailed
p5734
aVsailing
p5735
aVsaint
p5736
aVsaints
p5737
aVsake
p5738
aVsaloon
p5739
aVsalt
p5740
aVsalty
p5741
aVsame
p5742
aVsand
p5743
aVsane
p5744
aVsang
p5745
aVsat
p5746
aVsatellites
p5747
aVsatisfaction
p5748
aVsatisfied
p5749
aVsatisfies
p5750
aVsatisfy
p5751
aVsave
p5752
aVsaved
p5753
aVsaving
p5754
aVsavior
p5755
aVsaw
p5756
aVsax
p5757
aVsay
p5758
aVsaying
p5759
aVsays
p5760
aVsayyiyay
p5761
aVscar
p5762
aVscarecrow
p5763
aVscared
p5764
aVscarf
p5765
aVscarlet
p5766
aVscarred
p5767
aVscars
p5768
aVscary
p5769
aVscene
p5770
aVscenes
p5771
aVscent
p5772
aVschemes
p5773
aVschn
p5774
aVschool
p5775
aVschuld
p5776
aVscience
p5777
aVscold
p5778
aVscooby
p5779
aVscope
p5780
aVscore
p5781
aVscratch
p5782
aVscream
p5783
aVscreamed
p5784
aVscreamin
p5785
aVscreaming
p5786
aVscreams
p5787
aVscreech
p5788
aVscreen
p5789
aVscreenshots
p5790
aVscrew
p5791
aVscrewing
p5792
aVscrimp
p5793
aVsea
p5794
aVseal
p5795
aVsealed
p5796
aVseam
p5797
aVseams
p5798
aVseance
p5799
aVsearch
p5800
aVsearched
p5801
aVsearchin
p5802
aVsearching
p5803
aVseas
p5804
aVseashell
p5805
aVseason
p5806
aVseasons
p5807
aVseat
p5808
aVseated
p5809
aVsecond
p5810
aVsecondguessing
p5811
aVseconds
p5812
aVsecrecy
p5813
aVsecret
p5814
aVsecretly
p5815
aVsecrets
p5816
aVsecurity
p5817
aVsee
p5818
aVseed
p5819
aVseeds
p5820
aVseein
p5821
aVseeing
p5822
aVseem
p5823
aVseemed
p5824
aVseemon
p5825
aVseems
p5826
aVseen
p5827
aVsees
p5828
aVseethrough
p5829
aVsein
p5830
aVseize
p5831
aVself
p5832
aVselfindulgent
p5833
aVselfish
p5834
aVsell
p5835
aVselling
p5836
aVseminar
p5837
aVsend
p5838
aVsending
p5839
aVsends
p5840
aVsenior
p5841
aVsensations
p5842
aVsense
p5843
aVsenseless
p5844
aVsenses
p5845
aVsensible
p5846
aVsent
p5847
aVseparate
p5848
aVseparated
p5849
aVserenade
p5850
aVserene
p5851
aVserious
p5852
aVsermon
p5853
aVserving
p5854
aVsession
p5855
aVset
p5856
aVsets
p5857
aVsetting
p5858
aVsettle
p5859
aVsettled
p5860
aVseven
p5861
aVseventeen
p5862
aVseventeenth
p5863
aVseventy
p5864
aVseveral
p5865
aVsewed
p5866
aVsex
p5867
aVsexy
p5868
aVsha
p5869
aVshackles
p5870
aVshadadada
p5871
aVshade
p5872
aVshades
p5873
aVshadow
p5874
aVshadows
p5875
aVshady
p5876
aVshake
p5877
aVshaken
p5878
aVshaking
p5879
aVshall
p5880
aVshallow
p5881
aVshame
p5882
aVshameful
p5883
aVshape
p5884
aVshaped
p5885
aVshare
p5886
aVshared
p5887
aVsharp
p5888
aVshattered
p5889
aVshatterproof
p5890
aVshaves
p5891
aVshe
p5892
aVshed
p5893
aVsheep
p5894
aVshelf
p5895
aVshell
p5896
aVshelter
p5897
aVshes
p5898
aVshield
p5899
aVshifting
p5900
aVshimmering
p5901
aVshine
p5902
aVshined
p5903
aVshines
p5904
aVshining
p5905
aVshiny
p5906
aVship
p5907
aVships
p5908
aVshipwreck
p5909
aVshirt
p5910
aVshirts
p5911
aVshit
p5912
aVshiver
p5913
aVshivers
p5914
aVshock
p5915
aVshoe
p5916
aVshoes
p5917
aVshoeshine
p5918
aVshone
p5919
aVshook
p5920
aVshoot
p5921
aVshooting
p5922
aVshoots
p5923
aVshop
p5924
aVshopwindow
p5925
aVshore
p5926
aVshort
p5927
aVshortcut
p5928
aVshorter
p5929
aVshortest
p5930
aVshorties
p5931
aVshorts
p5932
aVshot
p5933
aVshotgun
p5934
aVshots
p5935
aVshould
p5936
aVshoulder
p5937
aVshoulders
p5938
aVshouldnt
p5939
aVshouldve
p5940
aVshout
p5941
aVshouting
p5942
aVshouts
p5943
aVshovel
p5944
aVshow
p5945
aVshowdown
p5946
aVshowed
p5947
aVshower
p5948
aVshowing
p5949
aVshown
p5950
aVshows
p5951
aVshreds
p5952
aVshrink
p5953
aVshrouding
p5954
aVshudder
p5955
aVshuffle
p5956
aVshuop
p5957
aVshut
p5958
aVshy
p5959
aVsick
p5960
aVside
p5961
aVsideboard
p5962
aVsidelines
p5963
aVsides
p5964
aVsidewalk
p5965
aVsidewalks
p5966
aVsie
p5967
aVsigh
p5968
aVsighin
p5969
aVsighs
p5970
aVsight
p5971
aVsights
p5972
aVsign
p5973
aVsignal
p5974
aVsigns
p5975
aVsilence
p5976
aVsilent
p5977
aVsilently
p5978
aVsilhouette
p5979
aVsilly
p5980
aVsilver
p5981
aVsimple
p5982
aVsimply
p5983
aVsimultaneously
p5984
aVsin
p5985
aVsince
p5986
aVsincere
p5987
aVsincerely
p5988
aVsing
p5989
aVsinger
p5990
aVsingers
p5991
aVsingin
p5992
aVsinging
p5993
aVsingle
p5994
aVsings
p5995
aVsinisters
p5996
aVsink
p5997
aVsinking
p5998
aVsinks
p5999
aVsinner
p6000
aVsins
p6001
aVsip
p6002
aVsippin
p6003
aVsir
p6004
aVsiren
p6005
aVsirens
p6006
aVsister
p6007
aVsisters
p6008
aVsit
p6009
aVsits
p6010
aVsittin
p6011
aVsitting
p6012
aVsituation
p6013
aVsix
p6014
aVsixteen
p6015
aVsixties
p6016
aVsixty
p6017
aVsixtyfour
p6018
aVsize
p6019
aVskelter
p6020
aVskies
p6021
aVskin
p6022
aVskinny
p6023
aVskip
p6024
aVskipped
p6025
aVskirt
p6026
aVskirts
p6027
aVsky
p6028
aVskyfall
p6029
aVskyline
p6030
aVskyrise
p6031
aVskys
p6032
aVskyscrapers
p6033
aVslacka
p6034
aVslammed
p6035
aVslamming
p6036
aVslander
p6037
aVslap
p6038
aVslates
p6039
aVslaughter
p6040
aVslave
p6041
aVslay
p6042
aVslayed
p6043
aVsleep
p6044
aVsleeping
p6045
aVsleepings
p6046
aVsleepless
p6047
aVsleeps
p6048
aVsleepy
p6049
aVsleeve
p6050
aVsleeves
p6051
aVsleigh
p6052
aVsleighing
p6053
aVslept
p6054
aVsliced
p6055
aVslick
p6056
aVslide
p6057
aVslides
p6058
aVslim
p6059
aVsling
p6060
aVslip
p6061
aVslipped
p6062
aVslipping
p6063
aVslips
p6064
aVslither
p6065
aVslope
p6066
aVslow
p6067
aVslowly
p6068
aVslows
p6069
aVslumbers
p6070
aVsly
p6071
aVsmall
p6072
aVsmalltown
p6073
aVsmart
p6074
aVsmarter
p6075
aVsmash
p6076
aVsmashed
p6077
aVsmeared
p6078
aVsmell
p6079
aVsmells
p6080
aVsmile
p6081
aVsmiled
p6082
aVsmiles
p6083
aVsmiling
p6084
aVsmithereens
p6085
aVsmoke
p6086
aVsmokers
p6087
aVsmokey
p6088
aVsmoking
p6089
aVsnake
p6090
aVsnapped
p6091
aVsnapping
p6092
aVsneak
p6093
aVsneakers
p6094
aVsnide
p6095
aVsnob
p6096
aVsnores
p6097
aVsnotty
p6098
aVsnow
p6099
aVsnows
p6100
aVsnuck
p6101
aVso
p6102
aVsoak
p6103
aVsoap
p6104
aVsoar
p6105
aVsober
p6106
aVsocial
p6107
aVsock
p6108
aVsocks
p6109
aVsofa
p6110
aVsoft
p6111
aVsoftening
p6112
aVsofter
p6113
aVsoftly
p6114
aVsol
p6115
aVsold
p6116
aVsoldier
p6117
aVsoldiers
p6118
aVsolid
p6119
aVsolitude
p6120
aVsolltest
p6121
aVsolo
p6122
aVsolution
p6123
aVsolve
p6124
aVsome
p6125
aVsomebody
p6126
aVsomebodys
p6127
aVsomeday
p6128
aVsomehow
p6129
aVsomeone
p6130
aVsomeones
p6131
aVsomeplace
p6132
aVsomethin
p6133
aVsomething
p6134
aVsomethings
p6135
aVsometime
p6136
aVsometimes
p6137
aVsomeway
p6138
aVsomewhere
p6139
aVson
p6140
aVsong
p6141
aVsongbird
p6142
aVsongs
p6143
aVsoon
p6144
aVsooner
p6145
aVsoothing
p6146
aVsophistication
p6147
aVsore
p6148
aVsorrow
p6149
aVsorry
p6150
aVsorta
p6151
aVsoul
p6152
aVsouls
p6153
aVsound
p6154
aVsounded
p6155
aVsoundly
p6156
aVsounds
p6157
aVsoundtrack
p6158
aVsoup
p6159
aVsour
p6160
aVsouth
p6161
aVsouthern
p6162
aVsow
p6163
aVsown
p6164
aVsoy
p6165
aVspace
p6166
aVspaceships
p6167
aVspaghetti
p6168
aVspaniel
p6169
aVspanish
p6170
aVspare
p6171
aVspark
p6172
aVsparkle
p6173
aVsparkling
p6174
aVsparkly
p6175
aVsparks
p6176
aVspeak
p6177
aVspeaking
p6178
aVspecial
p6179
aVspecially
p6180
aVspeck
p6181
aVspeculate
p6182
aVspeechless
p6183
aVspeed
p6184
aVspeedin
p6185
aVspell
p6186
aVspelling
p6187
aVspend
p6188
aVspendin
p6189
aVspending
p6190
aVspent
p6191
aVspice
p6192
aVspider
p6193
aVspiders
p6194
aVspies
p6195
aVspilled
p6196
aVspilling
p6197
aVspilt
p6198
aVspin
p6199
aVspinal
p6200
aVspinnin
p6201
aVspinning
p6202
aVspirit
p6203
aVspirits
p6204
aVspit
p6205
aVspite
p6206
aVsplashed
p6207
aVsplendid
p6208
aVsplit
p6209
aVspoil
p6210
aVspoke
p6211
aVspoken
p6212
aVspoon
p6213
aVsporting
p6214
aVspot
p6215
aVspotlight
p6216
aVsprawling
p6217
aVspray
p6218
aVspread
p6219
aVspring
p6220
aVspun
p6221
aVspy
p6222
aVspying
p6223
aVsquare
p6224
aVsqueeze
p6225
aVsqueezing
p6226
aVstack
p6227
aVstage
p6228
aVstain
p6229
aVstaircase
p6230
aVstairs
p6231
aVstairwell
p6232
aVstake
p6233
aVstakes
p6234
aVstand
p6235
aVstandin
p6236
aVstanding
p6237
aVstands
p6238
aVstar
p6239
aVstarched
p6240
aVstare
p6241
aVstared
p6242
aVstares
p6243
aVstarin
p6244
aVstaring
p6245
aVstarlight
p6246
aVstarlit
p6247
aVstarring
p6248
aVstars
p6249
aVstart
p6250
aVstarted
p6251
aVstarting
p6252
aVstarts
p6253
aVstate
p6254
aVstated
p6255
aVstation
p6256
aVstations
p6257
aVstatistics
p6258
aVstay
p6259
aVstayed
p6260
aVstaying
p6261
aVstays
p6262
aVstayyy
p6263
aVstead
p6264
aVsteady
p6265
aVsteal
p6266
aVstealing
p6267
aVsteam
p6268
aVsteeple
p6269
aVsteer
p6270
aVsteering
p6271
aVstep
p6272
aVstepped
p6273
aVstepping
p6274
aVsteps
p6275
aVstick
p6276
aVsticking
p6277
aVstill
p6278
aVsting
p6279
aVstinking
p6280
aVstitch
p6281
aVstitches
p6282
aVstockings
p6283
aVstole
p6284
aVstolen
p6285
aVstomach
p6286
aVstone
p6287
aVstones
p6288
aVstoney
p6289
aVstood
p6290
aVstop
p6291
aVstopped
p6292
aVstopping
p6293
aVstops
p6294
aVstore
p6295
aVstories
p6296
aVstorm
p6297
aVstormin
p6298
aVstorms
p6299
aVstormy
p6300
aVstory
p6301
aVstorys
p6302
aVstow
p6303
aVstraight
p6304
aVstrain
p6305
aVstranded
p6306
aVstrange
p6307
aVstrangely
p6308
aVstranger
p6309
aVstrangers
p6310
aVstrangest
p6311
aVstraw
p6312
aVstrawberry
p6313
aVstray
p6314
aVstreak
p6315
aVstream
p6316
aVstreaming
p6317
aVstreams
p6318
aVstreet
p6319
aVstreetlights
p6320
aVstreets
p6321
aVstrength
p6322
aVstretch
p6323
aVstretches
p6324
aVstride
p6325
aVstrike
p6326
aVstrikes
p6327
aVstring
p6328
aVstrings
p6329
aVstripes
p6330
aVstrokes
p6331
aVstroll
p6332
aVstrolling
p6333
aVstrong
p6334
aVstronger
p6335
aVstruck
p6336
aVstruggle
p6337
aVstruggled
p6338
aVstruggling
p6339
aVstrutting
p6340
aVstubborn
p6341
aVstuck
p6342
aVstudied
p6343
aVstuff
p6344
aVstumble
p6345
aVstump
p6346
aVstung
p6347
aVstunting
p6348
aVstupid
p6349
aVstutter
p6350
aVstuttered
p6351
aVsty
p6352
aVstyes
p6353
aVstyle
p6354
aVstyles
p6355
aVsubject
p6356
aVsubmarine
p6357
aVsubmarines
p6358
aVsubsides
p6359
aVsuburban
p6360
aVsucceed
p6361
aVsuccess
p6362
aVsuch
p6363
aVsucker
p6364
aVsucks
p6365
aVsudden
p6366
aVsuddenly
p6367
aVsue
p6368
aVsuede
p6369
aVsuffer
p6370
aVsuffering
p6371
aVsugar
p6372
aVsuicidal
p6373
aVsuicide
p6374
aVsuit
p6375
aVsuitcase
p6376
aVsummer
p6377
aVsummers
p6378
aVsummertimes
p6379
aVsun
p6380
aVsung
p6381
aVsunken
p6382
aVsunlight
p6383
aVsunny
p6384
aVsunrise
p6385
aVsuns
p6386
aVsunset
p6387
aVsunshine
p6388
aVsuper
p6389
aVsuperficial
p6390
aVsuperman
p6391
aVsuperstar
p6392
aVsuperstition
p6393
aVsupper
p6394
aVsuppose
p6395
aVsupposed
p6396
aVsure
p6397
aVsurely
p6398
aVsurface
p6399
aVsurprise
p6400
aVsurprising
p6401
aVsurrender
p6402
aVsurround
p6403
aVsurrounded
p6404
aVsurvive
p6405
aVsuspected
p6406
aVswallow
p6407
aVswallowed
p6408
aVswallowing
p6409
aVswam
p6410
aVsway
p6411
aVswaying
p6412
aVsways
p6413
aVswear
p6414
aVswears
p6415
aVsweat
p6416
aVsweater
p6417
aVsweaters
p6418
aVsweating
p6419
aVsweaty
p6420
aVsweeeeet
p6421
aVsweep
p6422
aVsweeping
p6423
aVsweet
p6424
aVsweeter
p6425
aVsweetest
p6426
aVsweetheart
p6427
aVsweetie
p6428
aVsweetly
p6429
aVsweetness
p6430
aVswept
p6431
aVswerve
p6432
aVswim
p6433
aVswimmin
p6434
aVswimming
p6435
aVswing
p6436
aVswinging
p6437
aVswings
p6438
aVswirling
p6439
aVswirls
p6440
aVswitch
p6441
aVswitching
p6442
aVsword
p6443
aVswords
p6444
aVswore
p6445
aVswung
p6446
aVsymbol
p6447
aVsymmetry
p6448
aVsympathize
p6449
aVsympathy
p6450
aVsymphony
p6451
aVsyndicate
p6452
aVsystem
p6453
aVta
p6454
aVtable
p6455
aVtables
p6456
aVtacks
p6457
aVtaebo
p6458
aVtag
p6459
aVtails
p6460
aVtaint
p6461
aVtake
p6462
aVtaken
p6463
aVtakers
p6464
aVtakes
p6465
aVtakin
p6466
aVtaking
p6467
aVtale
p6468
aVtalent
p6469
aVtales
p6470
aVtalk
p6471
aVtalked
p6472
aVtalkin
p6473
aVtalking
p6474
aVtalks
p6475
aVtall
p6476
aVtame
p6477
aVtamed
p6478
aVtan
p6479
aVtangerine
p6480
aVtangled
p6481
aVtango
p6482
aVtank
p6483
aVtanta
p6484
aVtantalize
p6485
aVtanto
p6486
aVtap
p6487
aVtape
p6488
aVtapping
p6489
aVtarget
p6490
aVtart
p6491
aVtasks
p6492
aVtaste
p6493
aVtasted
p6494
aVtastes
p6495
aVtatooes
p6496
aVtattoo
p6497
aVtattooed
p6498
aVtattoos
p6499
aVtaught
p6500
aVtax
p6501
aVtaxi
p6502
aVtaxis
p6503
aVtaxman
p6504
aVtea
p6505
aVteach
p6506
aVteacher
p6507
aVteachers
p6508
aVteam
p6509
aVtear
p6510
aVteardrop
p6511
aVteardrops
p6512
aVtearing
p6513
aVtears
p6514
aVteary
p6515
aVtease
p6516
aVteaser
p6517
aVteasing
p6518
aVtee
p6519
aVteeth
p6520
aVtelegraph
p6521
aVtelephone
p6522
aVtelescope
p6523
aVtell
p6524
aVteller
p6525
aVtelling
p6526
aVtellogram
p6527
aVtells
p6528
aVtemper
p6529
aVtemperamental
p6530
aVtemperature
p6531
aVtemperatures
p6532
aVtemporarily
p6533
aVtemporary
p6534
aVtemptation
p6535
aVten
p6536
aVtenbob
p6537
aVtend
p6538
aVtendency
p6539
aVtender
p6540
aVtenderly
p6541
aVtenderness
p6542
aVtense
p6543
aVtent
p6544
aVterrible
p6545
aVterribly
p6546
aVterrified
p6547
aVtest
p6548
aVtestimonial
p6549
aVtests
p6550
aVtexpert
p6551
aVth
p6552
aVthan
p6553
aVthank
p6554
aVthankful
p6555
aVthankfulness
p6556
aVthankin
p6557
aVthanks
p6558
aVthat
p6559
aVthatism
p6560
aVthatll
p6561
aVthats
p6562
aVthe
p6563
aVtheir
p6564
aVtheirs
p6565
aVthem
p6566
aVthemselves
p6567
aVthen
p6568
aVthere
p6569
aVtherell
p6570
aVtheres
p6571
aVthese
p6572
aVtheses
p6573
aVthey
p6574
aVtheyd
p6575
aVtheyll
p6576
aVtheyre
p6577
aVtheyve
p6578
aVthick
p6579
aVthicker
p6580
aVthief
p6581
aVthieves
p6582
aVthighs
p6583
aVthin
p6584
aVthing
p6585
aVthings
p6586
aVthink
p6587
aVthinkin
p6588
aVthinking
p6589
aVthinks
p6590
aVthirst
p6591
aVthirsty
p6592
aVthirteen
p6593
aVthis
p6594
aVthiss
p6595
aVthorns
p6596
aVthose
p6597
aVthough
p6598
aVthought
p6599
aVthoughtless
p6600
aVthoughtlessly
p6601
aVthoughtlessness
p6602
aVthoughts
p6603
aVthousand
p6604
aVthousandth
p6605
aVthread
p6606
aVthreading
p6607
aVthree
p6608
aVthrew
p6609
aVthrill
p6610
aVthriller
p6611
aVthroat
p6612
aVthrone
p6613
aVthrough
p6614
aVthroughout
p6615
aVthrow
p6616
aVthrowing
p6617
aVthrown
p6618
aVthrows
p6619
aVthru
p6620
aVthug
p6621
aVthumb
p6622
aVthunder
p6623
aVthy
p6624
aVticker
p6625
aVticket
p6626
aVtickets
p6627
aVticking
p6628
aVtide
p6629
aVtides
p6630
aVtidy
p6631
aVtie
p6632
aVtied
p6633
aVties
p6634
aVtiger
p6635
aVtigers
p6636
aVtight
p6637
aVtighter
p6638
aVtightrope
p6639
aVtil
p6640
aVtill
p6641
aVtilt
p6642
aVtilted
p6643
aVtime
p6644
aVtimes
p6645
aVtiming
p6646
aVtin
p6647
aVtingle
p6648
aVtiny
p6649
aVtip
p6650
aVtips
p6651
aVtired
p6652
aVtires
p6653
aVtiring
p6654
aVto
p6655
aVtoast
p6656
aVtoday
p6657
aVtoe
p6658
aVtoes
p6659
aVtogether
p6660
aVtoiling
p6661
aVtold
p6662
aVtoll
p6663
aVtomboy
p6664
aVtomorrow
p6665
aVtomorrows
p6666
aVtone
p6667
aVtones
p6668
aVtongue
p6669
aVtonight
p6670
aVtoo
p6671
aVtoobidoo
p6672
aVtook
p6673
aVtop
p6674
aVtopping
p6675
aVtops
p6676
aVtore
p6677
aVtorn
p6678
aVtorso
p6679
aVtorture
p6680
aVtossing
p6681
aVtouch
p6682
aVtouched
p6683
aVtouches
p6684
aVtouching
p6685
aVtough
p6686
aVtougher
p6687
aVtour
p6688
aVtow
p6689
aVtoward
p6690
aVtowel
p6691
aVtower
p6692
aVtowers
p6693
aVtown
p6694
aVtowns
p6695
aVtoy
p6696
aVtoys
p6697
aVtrace
p6698
aVtrack
p6699
aVtracks
p6700
aVtractor
p6701
aVtraded
p6702
aVtraffic
p6703
aVtragedy
p6704
aVtragic
p6705
aVtrail
p6706
aVtrailer
p6707
aVtrain
p6708
aVtraitors
p6709
aVtrampled
p6710
aVtrampoline
p6711
aVtrance
p6712
aVtranslation
p6713
aVtrap
p6714
aVtrapezes
p6715
aVtrapped
p6716
aVtravel
p6717
aVtraveled
p6718
aVtraveling
p6719
aVtravels
p6720
aVtravling
p6721
aVtray
p6722
aVtreacherous
p6723
aVtread
p6724
aVtreasure
p6725
aVtreasured
p6726
aVtreasures
p6727
aVtreat
p6728
aVtreatin
p6729
aVtreating
p6730
aVtreats
p6731
aVtree
p6732
aVtrees
p6733
aVtrembling
p6734
aVtrench
p6735
aVtrend
p6736
aVtres
p6737
aVtrial
p6738
aVtricked
p6739
aVtrickled
p6740
aVtricks
p6741
aVtricky
p6742
aVtried
p6743
aVtries
p6744
aVtrigger
p6745
aVtrim
p6746
aVtrip
p6747
aVtripper
p6748
aVtrivialities
p6749
aVtrolley
p6750
aVtrophies
p6751
aVtrouble
p6752
aVtroubles
p6753
aVtroubling
p6754
aVtruck
p6755
aVtrue
p6756
aVtruest
p6757
aVtruffle
p6758
aVtruly
p6759
aVtrunk
p6760
aVtrust
p6761
aVtrusted
p6762
aVtrusting
p6763
aVtrusts
p6764
aVtruth
p6765
aVtry
p6766
aVtryin
p6767
aVtrying
p6768
aVtryna
p6769
aVtshirt
p6770
aVtube
p6771
aVtuck
p6772
aVtuition
p6773
aVtulips
p6774
aVtumble
p6775
aVtumbling
p6776
aVtune
p6777
aVturn
p6778
aVturnaway
p6779
aVturned
p6780
aVturning
p6781
aVturns
p6782
aVturnstile
p6783
aVturtle
p6784
aVtux
p6785
aVtv
p6786
aVtwelve
p6787
aVtwenty
p6788
aVtwice
p6789
aVtwin
p6790
aVtwinsize
p6791
aVtwirl
p6792
aVtwist
p6793
aVtwisted
p6794
aVtwisting
p6795
aVtwo
p6796
aVtwoforty
p6797
aVtwothirty
p6798
aVtype
p6799
aVtypical
p6800
aVu
aVugly
p6801
aVuh
p6802
aVuhh
p6803
aVuhoo
p6804
aVum
p6805
aVumbrella
p6806
aVumbrellaellaellaayayay
p6807
aVumbrellaellaellaayayayayayay
p6808
aVumm
p6809
aVunacceptable
p6810
aVunbelievable
p6811
aVunbroken
p6812
aVunchanged
p6813
aVuncle
p6814
aVunclear
p6815
aVund
p6816
aVunder
p6817
aVunderbelly
p6818
aVunderestimate
p6819
aVunderestimated
p6820
aVunderfed
p6821
aVunderground
p6822
aVunderlined
p6823
aVunderneath
p6824
aVunderstand
p6825
aVunderstands
p6826
aVunderstood
p6827
aVundertake
p6828
aVundone
p6829
aVundress
p6830
aVundying
p6831
aVunease
p6832
aVunexpected
p6833
aVunfair
p6834
aVunfamiliar
p6835
aVunfold
p6836
aVunforgettable
p6837
aVunfortunately
p6838
aVunfroze
p6839
aVunhappy
p6840
aVuninvited
p6841
aVunite
p6842
aVunited
p6843
aVuniverse
p6844
aVunkind
p6845
aVunkiss
p6846
aVunknown
p6847
aVunless
p6848
aVunlock
p6849
aVunnecessarily
p6850
aVunpack
p6851
aVunpleasant
p6852
aVunravel
p6853
aVunresolved
p6854
aVunsaid
p6855
aVunscathed
p6856
aVunspoken
p6857
aVunstuck
p6858
aVuntil
p6859
aVuntouch
p6860
aVuntrue
p6861
aVunwise
p6862
aVuoh
p6863
aVup
p6864
aVupon
p6865
aVupper
p6866
aVups
p6867
aVupset
p6868
aVupside
p6869
aVupsot
p6870
aVupstairs
p6871
aVupstanding
p6872
aVupstate
p6873
aVupstream
p6874
aVuptown
p6875
aVus
p6876
aVuse
p6877
aVused
p6878
aVuseless
p6879
aVuses
p6880
aVusing
p6881
aVusual
p6882
aVusually
p6883
aVvacancy
p6884
aVvacant
p6885
aVvacation
p6886
aVvague
p6887
aVvain
p6888
aVvalentine
p6889
aVvalet
p6890
aVvalley
p6891
aVvan
p6892
aVvanish
p6893
aVvanished
p6894
aVvantage
p6895
aVveil
p6896
aVveiled
p6897
aVveins
p6898
aVvelvet
p6899
aVvendettata
p6900
aVverdict
p6901
aVverge
p6902
aVverse
p6903
aVversion
p6904
aVverstehen
p6905
aVvery
p6906
aVverzeiht
p6907
aVvest
p6908
aVvicious
p6909
aVvictim
p6910
aVvideo
p6911
aVvideos
p6912
aVview
p6913
aVviews
p6914
aVvillage
p6915
aVvine
p6916
aVvines
p6917
aVvintage
p6918
aVviolate
p6919
aVviolent
p6920
aVviolet
p6921
aVvirgin
p6922
aVvision
p6923
aVvisitor
p6924
aVvitamins
p6925
aVvoice
p6926
aVvoices
p6927
aVvoid
p6928
aVvont
p6929
aVvow
p6930
aVvulture
p6931
aVwa
p6932
aVwaaterfall
p6933
aVwah
p6934
aVwaist
p6935
aVwait
p6936
aVwaited
p6937
aVwaitin
p6938
aVwaiting
p6939
aVwaits
p6940
aVwake
p6941
aVwakes
p6942
aVwaking
p6943
aVwalk
p6944
aVwalked
p6945
aVwalking
p6946
aVwalks
p6947
aVwall
p6948
aVwalls
p6949
aVwalrus
p6950
aVwaltz
p6951
aVwandered
p6952
aVwandering
p6953
aVwanders
p6954
aVwanna
p6955
aVwant
p6956
aVwanted
p6957
aVwantin
p6958
aVwanting
p6959
aVwants
p6960
aVwar
p6961
aVwarm
p6962
aVwarms
p6963
aVwarmth
p6964
aVwarn
p6965
aVwarnin
p6966
aVwarning
p6967
aVwarpath
p6968
aVwars
p6969
aVwarst
p6970
aVwarum
p6971
aVwas
p6972
aVwashed
p6973
aVwasnt
p6974
aVwaste
p6975
aVwasted
p6976
aVwasting
p6977
aVwatch
p6978
aVwatched
p6979
aVwatches
p6980
aVwatching
p6981
aVwater
p6982
aVwaterfall
p6983
aVwaters
p6984
aVwave
p6985
aVwaves
p6986
aVwaving
p6987
aVway
p6988
aVways
p6989
aVwayward
p6990
aVwe
p6991
aVweak
p6992
aVweaker
p6993
aVweakness
p6994
aVwealth
p6995
aVweapon
p6996
aVweapons
p6997
aVwear
p6998
aVwearing
p6999
aVwears
p7000
aVweary
p7001
aVweather
p7002
aVweathers
p7003
aVweaving
p7004
aVweb
p7005
aVwed
p7006
aVwedding
p7007
aVweeds
p7008
aVweek
p7009
aVweekend
p7010
aVweeks
p7011
aVweep
p7012
aVweeping
p7013
aVweeps
p7014
aVweh
p7015
aVweigh
p7016
aVweight
p7017
aVwelcome
p7018
aVwell
p7019
aVwellies
p7020
aVwent
p7021
aVwept
p7022
aVwere
p7023
aVwerent
p7024
aVwerewolf
p7025
aVwest
p7026
aVwet
p7027
aVweve
p7028
aVwhacking
p7029
aVwhat
p7030
aVwhatd
p7031
aVwhatever
p7032
aVwhatre
p7033
aVwhats
p7034
aVwhatve
p7035
aVwheel
p7036
aVwheels
p7037
aVwhen
p7038
aVwhenever
p7039
aVwhere
p7040
aVwheres
p7041
aVwherever
p7042
aVwhether
p7043
aVwhets
p7044
aVwhich
p7045
aVwhile
p7046
aVwhim
p7047
aVwhisper
p7048
aVwhispered
p7049
aVwhispers
p7050
aVwhite
p7051
aVwho
p7052
aVwhoa
p7053
aVwhod
p7054
aVwhoever
p7055
aVwhole
p7056
aVwholl
p7057
aVwhos
p7058
aVwhy
p7059
aVwhyd
p7060
aVwicked
p7061
aVwide
p7062
aVwideeyed
p7063
aVwider
p7064
aVwie
p7065
aVwife
p7066
aVwild
p7067
aVwilderness
p7068
aVwildest
p7069
aVwildfire
p7070
aVwildly
p7071
aVwill
p7072
aVwilling
p7073
aVwills
p7074
aVwin
p7075
aVwind
p7076
aVwinding
p7077
aVwindmills
p7078
aVwindow
p7079
aVwindows
p7080
aVwinds
p7081
aVwindy
p7082
aVwine
p7083
aVwinestained
p7084
aVwinging
p7085
aVwings
p7086
aVwink
p7087
aVwinks
p7088
aVwinner
p7089
aVwinning
p7090
aVwins
p7091
aVwinter
p7092
aVwinters
p7093
aVwipe
p7094
aVwiping
p7095
aVwird
p7096
aVwire
p7097
aVwireless
p7098
aVwires
p7099
aVwisdom
p7100
aVwise
p7101
aVwiser
p7102
aVwish
p7103
aVwished
p7104
aVwishes
p7105
aVwishful
p7106
aVwishin
p7107
aVwishing
p7108
aVwitches
p7109
aVwith
p7110
aVwithered
p7111
aVwithin
p7112
aVwithout
p7113
aVwithstand
p7114
aVwives
p7115
aVwo
p7116
aVwoah
p7117
aVwoh
p7118
aVwoke
p7119
aVwoman
p7120
aVwomans
p7121
aVwomen
p7122
aVwon
p7123
aVwonder
p7124
aVwonderful
p7125
aVwonderin
p7126
aVwondering
p7127
aVwonderland
p7128
aVwonders
p7129
aVwont
p7130
aVwoo
p7131
aVwood
p7132
aVwooden
p7133
aVwoods
p7134
aVwoof
p7135
aVwooly
p7136
aVwoos
p7137
aVword
p7138
aVwords
p7139
aVwore
p7140
aVwork
p7141
aVworked
p7142
aVworking
p7143
aVworks
p7144
aVworld
p7145
aVworlds
p7146
aVworm
p7147
aVworn
p7148
aVwornout
p7149
aVworried
p7150
aVworries
p7151
aVworry
p7152
aVworrying
p7153
aVworse
p7154
aVworst
p7155
aVworth
p7156
aVworthless
p7157
aVworthwhile
p7158
aVworthy
p7159
aVwould
p7160
aVwoulda
p7161
aVwouldnt
p7162
aVwouldve
p7163
aVwound
p7164
aVwounded
p7165
aVwounds
p7166
aVwow
p7167
aVwowwww
p7168
aVwrap
p7169
aVwrapped
p7170
aVwreath
p7171
aVwreck
p7172
aVwreckage
p7173
aVwrestling
p7174
aVwrinkles
p7175
aVwrit
p7176
aVwrite
p7177
aVwriter
p7178
aVwrithing
p7179
aVwriting
p7180
aVwritings
p7181
aVwritten
p7182
aVwrong
p7183
aVwrote
p7184
aVwusste
p7185
aVx15
p7186
aVx2
p7187
aVx3
p7188
aVx4
p7189
aVx5
p7190
aVx7
p7191
aVya
p7192
aVyacht
p7193
aVyall
p7194
aVyard
p7195
aVyawning
p7196
aVyay
p7197
aVyea
p7198
aVyeah
p7199
aVyeahahah
p7200
aVyear
p7201
aVyearn
p7202
aVyearning
p7203
aVyears
p7204
aVyeh
p7205
aVyell
p7206
aVyelling
p7207
aVyellow
p7208
aVyes
p7209
aVyesterday
p7210
aVyesterdayyiyay
p7211
aVyet
p7212
aVyip
p7213
aVyo
p7214
aVyore
p7215
aVyou
p7216
aVyouR
p7217
aVyoud
p7218
aVyoull
p7219
aVyoung
p7220
aVyounger
p7221
aVyour
p7222
aVyoure
p7223
aVyours
p7224
aVyourself
p7225
aVyouself
p7226
aVyouth
p7227
aVyouve
p7228
aVzaba
p7229
aVzapped
p7230
aVzero
p7231
aVzoo
p7232
aVzu
p7233
a.